

Microchip MPLAB XC8 Assembler V2.31 build 20201012212115 
                                                                                               Wed Sep 22 23:49:33 2021

Microchip MPLAB XC8 C Compiler v2.31 (Free license) build 20201012212115 Og1 
     1                           	processor	16LF1503
     2                           	pagewidth 120
     3                           	opt	flic
     4                           	psect	nvCOMMON,global,class=COMMON,space=1,delta=1,noexec
     5                           	psect	nvBANK0,global,class=BANK0,space=1,delta=1,noexec
     6                           	psect	cinit,global,class=CODE,merge=1,delta=2
     7                           	psect	cstackCOMMON,global,class=COMMON,space=1,delta=1,noexec
     8                           	psect	cstackBANK0,global,class=BANK0,space=1,delta=1,noexec
     9                           	psect	maintext,global,class=CODE,merge=1,split=1,delta=2
    10                           	psect	text1,local,class=CODE,merge=1,delta=2
    11                           	psect	text2,local,class=CODE,merge=1,delta=2
    12                           	psect	text3,local,class=CODE,merge=1,delta=2
    13                           	psect	text4,local,class=CODE,merge=1,delta=2
    14                           	psect	text5,local,class=CODE,merge=1,delta=2
    15                           	psect	text6,local,class=CODE,merge=1,delta=2
    16                           	psect	text7,local,class=CODE,merge=1,delta=2
    17                           	psect	text8,local,class=CODE,merge=1,delta=2
    18                           	psect	text9,local,class=CODE,merge=1,delta=2
    19                           	psect	text10,local,class=CODE,merge=1,delta=2
    20                           	psect	text11,local,class=CODE,merge=1,delta=2
    21                           	psect	text12,local,class=CODE,merge=1,delta=2
    22                           	psect	text13,local,class=CODE,merge=1,delta=2
    23                           	psect	text14,local,class=CODE,merge=1,delta=2
    24                           	psect	text15,local,class=CODE,merge=1,delta=2
    25                           	psect	intentry,global,class=CODE,delta=2
    26                           	psect	text17,local,class=CODE,merge=1,delta=2
    27                           	psect	text18,local,class=CODE,merge=1,delta=2
    28                           	psect	text19,local,class=CODE,merge=1,delta=2
    29                           	psect	text20,local,class=CODE,merge=1,delta=2
    30                           	psect	text21,local,class=CODE,merge=1,delta=2
    31                           	psect	text22,local,class=CODE,merge=1,delta=2
    32                           	psect	text23,local,class=CODE,merge=1,delta=2
    33                           	psect	text24,local,class=CODE,merge=1,delta=2
    34                           	psect	text25,local,class=CODE,merge=1,delta=2
    35                           	psect	text26,local,class=CODE,merge=1,delta=2
    36                           	psect	text27,local,class=CODE,merge=1,delta=2
    37                           	psect	text28,local,class=CODE,merge=1,delta=2
    38                           	psect	text29,local,class=CODE,merge=1,delta=2
    39                           	psect	text30,local,class=CODE,merge=1,delta=2
    40                           	psect	text31,local,class=CODE,merge=1,delta=2
    41                           	psect	text32,local,class=CODE,merge=1,delta=2
    42                           	psect	config,global,abs,ovrld,class=CONFIG,space=4,delta=2,noexec
    43                           	dabs	1,0x7E,2
    44  0000                     
    45                           ; Version 2.20
    46                           ; Generated 12/02/2020 GMT
    47                           ; 
    48                           ; Copyright © 2020, Microchip Technology Inc. and its subsidiaries ("Microchip")
    49                           ; All rights reserved.
    50                           ; 
    51                           ; This software is developed by Microchip Technology Inc. and its subsidiaries ("Microch
      +                          ip").
    52                           ; 
    53                           ; Redistribution and use in source and binary forms, with or without modification, are
    54                           ; permitted provided that the following conditions are met:
    55                           ; 
    56                           ;     1. Redistributions of source code must retain the above copyright notice, this lis
      +                          t of
    57                           ;        conditions and the following disclaimer.
    58                           ; 
    59                           ;     2. Redistributions in binary form must reproduce the above copyright notice, this 
      +                          list
    60                           ;        of conditions and the following disclaimer in the documentation and/or other
    61                           ;        materials provided with the distribution.
    62                           ; 
    63                           ;     3. Microchip's name may not be used to endorse or promote products derived from th
      +                          is
    64                           ;        software without specific prior written permission.
    65                           ; 
    66                           ; THIS SOFTWARE IS PROVIDED BY MICROCHIP "AS IS" AND ANY EXPRESS OR IMPLIED WARRANTIES,
    67                           ; INCLUDING, BUT NOT LIMITED TO, THE IMPLIED WARRANTIES OF MERCHANTABILITY AND FITNESS F
      +                          OR
    68                           ; PURPOSE ARE DISCLAIMED.  IN NO EVENT SHALL MICROCHIP BE LIABLE FOR ANY DIRECT, INDIREC
      +                          T,
    69                           ; INCIDENTAL, SPECIAL, EXEMPLARY, OR CONSEQUENTIAL DAMAGES (INCLUDING BUT NOT LIMITED TO
    70                           ; PROCUREMENT OF SUBSTITUTE GOODS OR SERVICES; LOSS OF USE, DATA OR PROFITS; OR BUSINESS
    71                           ; INTERRUPTION) HOWSOEVER CAUSED AND ON ANY THEORY OF LIABILITY, WHETHER IN CONTRACT, ST
      +                          RICT
    72                           ; LIABILITY, OR TORT (INCLUDING NEGLIGENCE OR OTHERWISE) ARISING IN ANY WAY OUT OF THE U
      +                          SE OF
    73                           ; THIS SOFTWARE, EVEN IF ADVISED OF THE POSSIBILITY OF SUCH DAMAGE.
    74                           ; 
    75                           ; 
    76                           ; Code-generator required, PIC16LF1503 Definitions
    77                           ; 
    78                           ; SFR Addresses
    79  0000                     	;# 
    80  0001                     	;# 
    81  0002                     	;# 
    82  0003                     	;# 
    83  0004                     	;# 
    84  0005                     	;# 
    85  0006                     	;# 
    86  0007                     	;# 
    87  0008                     	;# 
    88  0009                     	;# 
    89  000A                     	;# 
    90  000B                     	;# 
    91  000C                     	;# 
    92  000E                     	;# 
    93  0011                     	;# 
    94  0012                     	;# 
    95  0013                     	;# 
    96  0015                     	;# 
    97  0016                     	;# 
    98  0016                     	;# 
    99  0017                     	;# 
   100  0018                     	;# 
   101  0019                     	;# 
   102  001A                     	;# 
   103  001B                     	;# 
   104  001C                     	;# 
   105  008C                     	;# 
   106  008E                     	;# 
   107  0091                     	;# 
   108  0092                     	;# 
   109  0093                     	;# 
   110  0095                     	;# 
   111  0096                     	;# 
   112  0097                     	;# 
   113  0099                     	;# 
   114  009A                     	;# 
   115  009B                     	;# 
   116  009B                     	;# 
   117  009C                     	;# 
   118  009D                     	;# 
   119  009E                     	;# 
   120  009F                     	;# 
   121  010C                     	;# 
   122  010E                     	;# 
   123  0111                     	;# 
   124  0112                     	;# 
   125  0113                     	;# 
   126  0114                     	;# 
   127  0115                     	;# 
   128  0116                     	;# 
   129  0117                     	;# 
   130  0118                     	;# 
   131  0119                     	;# 
   132  011D                     	;# 
   133  018C                     	;# 
   134  018E                     	;# 
   135  0191                     	;# 
   136  0191                     	;# 
   137  0192                     	;# 
   138  0193                     	;# 
   139  0193                     	;# 
   140  0194                     	;# 
   141  0195                     	;# 
   142  0196                     	;# 
   143  020C                     	;# 
   144  0211                     	;# 
   145  0211                     	;# 
   146  0212                     	;# 
   147  0212                     	;# 
   148  0213                     	;# 
   149  0213                     	;# 
   150  0214                     	;# 
   151  0214                     	;# 
   152  0215                     	;# 
   153  0215                     	;# 
   154  0215                     	;# 
   155  0216                     	;# 
   156  0216                     	;# 
   157  0217                     	;# 
   158  0217                     	;# 
   159  0391                     	;# 
   160  0392                     	;# 
   161  0393                     	;# 
   162  0498                     	;# 
   163  0498                     	;# 
   164  0499                     	;# 
   165  049A                     	;# 
   166  049B                     	;# 
   167  049B                     	;# 
   168  049C                     	;# 
   169  049D                     	;# 
   170  049E                     	;# 
   171  049F                     	;# 
   172  0611                     	;# 
   173  0612                     	;# 
   174  0613                     	;# 
   175  0613                     	;# 
   176  0614                     	;# 
   177  0615                     	;# 
   178  0616                     	;# 
   179  0616                     	;# 
   180  0617                     	;# 
   181  0618                     	;# 
   182  0619                     	;# 
   183  0619                     	;# 
   184  061A                     	;# 
   185  061B                     	;# 
   186  061C                     	;# 
   187  061C                     	;# 
   188  0691                     	;# 
   189  0692                     	;# 
   190  0693                     	;# 
   191  0694                     	;# 
   192  0695                     	;# 
   193  0F0F                     	;# 
   194  0F10                     	;# 
   195  0F11                     	;# 
   196  0F12                     	;# 
   197  0F13                     	;# 
   198  0F14                     	;# 
   199  0F15                     	;# 
   200  0F16                     	;# 
   201  0F17                     	;# 
   202  0F18                     	;# 
   203  0F19                     	;# 
   204  0F1A                     	;# 
   205  0F1B                     	;# 
   206  0F1C                     	;# 
   207  0F1D                     	;# 
   208  0F1E                     	;# 
   209  0F1F                     	;# 
   210  0FE3                     	;# 
   211  0FE4                     	;# 
   212  0FE5                     	;# 
   213  0FE6                     	;# 
   214  0FE7                     	;# 
   215  0FE8                     	;# 
   216  0FE9                     	;# 
   217  0FEA                     	;# 
   218  0FEB                     	;# 
   219  0FED                     	;# 
   220  0FEE                     	;# 
   221  0FEF                     	;# 
   222  0000                     	;# 
   223  0001                     	;# 
   224  0002                     	;# 
   225  0003                     	;# 
   226  0004                     	;# 
   227  0005                     	;# 
   228  0006                     	;# 
   229  0007                     	;# 
   230  0008                     	;# 
   231  0009                     	;# 
   232  000A                     	;# 
   233  000B                     	;# 
   234  000C                     	;# 
   235  000E                     	;# 
   236  0011                     	;# 
   237  0012                     	;# 
   238  0013                     	;# 
   239  0015                     	;# 
   240  0016                     	;# 
   241  0016                     	;# 
   242  0017                     	;# 
   243  0018                     	;# 
   244  0019                     	;# 
   245  001A                     	;# 
   246  001B                     	;# 
   247  001C                     	;# 
   248  008C                     	;# 
   249  008E                     	;# 
   250  0091                     	;# 
   251  0092                     	;# 
   252  0093                     	;# 
   253  0095                     	;# 
   254  0096                     	;# 
   255  0097                     	;# 
   256  0099                     	;# 
   257  009A                     	;# 
   258  009B                     	;# 
   259  009B                     	;# 
   260  009C                     	;# 
   261  009D                     	;# 
   262  009E                     	;# 
   263  009F                     	;# 
   264  010C                     	;# 
   265  010E                     	;# 
   266  0111                     	;# 
   267  0112                     	;# 
   268  0113                     	;# 
   269  0114                     	;# 
   270  0115                     	;# 
   271  0116                     	;# 
   272  0117                     	;# 
   273  0118                     	;# 
   274  0119                     	;# 
   275  011D                     	;# 
   276  018C                     	;# 
   277  018E                     	;# 
   278  0191                     	;# 
   279  0191                     	;# 
   280  0192                     	;# 
   281  0193                     	;# 
   282  0193                     	;# 
   283  0194                     	;# 
   284  0195                     	;# 
   285  0196                     	;# 
   286  020C                     	;# 
   287  0211                     	;# 
   288  0211                     	;# 
   289  0212                     	;# 
   290  0212                     	;# 
   291  0213                     	;# 
   292  0213                     	;# 
   293  0214                     	;# 
   294  0214                     	;# 
   295  0215                     	;# 
   296  0215                     	;# 
   297  0215                     	;# 
   298  0216                     	;# 
   299  0216                     	;# 
   300  0217                     	;# 
   301  0217                     	;# 
   302  0391                     	;# 
   303  0392                     	;# 
   304  0393                     	;# 
   305  0498                     	;# 
   306  0498                     	;# 
   307  0499                     	;# 
   308  049A                     	;# 
   309  049B                     	;# 
   310  049B                     	;# 
   311  049C                     	;# 
   312  049D                     	;# 
   313  049E                     	;# 
   314  049F                     	;# 
   315  0611                     	;# 
   316  0612                     	;# 
   317  0613                     	;# 
   318  0613                     	;# 
   319  0614                     	;# 
   320  0615                     	;# 
   321  0616                     	;# 
   322  0616                     	;# 
   323  0617                     	;# 
   324  0618                     	;# 
   325  0619                     	;# 
   326  0619                     	;# 
   327  061A                     	;# 
   328  061B                     	;# 
   329  061C                     	;# 
   330  061C                     	;# 
   331  0691                     	;# 
   332  0692                     	;# 
   333  0693                     	;# 
   334  0694                     	;# 
   335  0695                     	;# 
   336  0F0F                     	;# 
   337  0F10                     	;# 
   338  0F11                     	;# 
   339  0F12                     	;# 
   340  0F13                     	;# 
   341  0F14                     	;# 
   342  0F15                     	;# 
   343  0F16                     	;# 
   344  0F17                     	;# 
   345  0F18                     	;# 
   346  0F19                     	;# 
   347  0F1A                     	;# 
   348  0F1B                     	;# 
   349  0F1C                     	;# 
   350  0F1D                     	;# 
   351  0F1E                     	;# 
   352  0F1F                     	;# 
   353  0FE3                     	;# 
   354  0FE4                     	;# 
   355  0FE5                     	;# 
   356  0FE6                     	;# 
   357  0FE7                     	;# 
   358  0FE8                     	;# 
   359  0FE9                     	;# 
   360  0FEA                     	;# 
   361  0FEB                     	;# 
   362  0FED                     	;# 
   363  0FEE                     	;# 
   364  0FEF                     	;# 
   365  0000                     	;# 
   366  0001                     	;# 
   367  0002                     	;# 
   368  0003                     	;# 
   369  0004                     	;# 
   370  0005                     	;# 
   371  0006                     	;# 
   372  0007                     	;# 
   373  0008                     	;# 
   374  0009                     	;# 
   375  000A                     	;# 
   376  000B                     	;# 
   377  000C                     	;# 
   378  000E                     	;# 
   379  0011                     	;# 
   380  0012                     	;# 
   381  0013                     	;# 
   382  0015                     	;# 
   383  0016                     	;# 
   384  0016                     	;# 
   385  0017                     	;# 
   386  0018                     	;# 
   387  0019                     	;# 
   388  001A                     	;# 
   389  001B                     	;# 
   390  001C                     	;# 
   391  008C                     	;# 
   392  008E                     	;# 
   393  0091                     	;# 
   394  0092                     	;# 
   395  0093                     	;# 
   396  0095                     	;# 
   397  0096                     	;# 
   398  0097                     	;# 
   399  0099                     	;# 
   400  009A                     	;# 
   401  009B                     	;# 
   402  009B                     	;# 
   403  009C                     	;# 
   404  009D                     	;# 
   405  009E                     	;# 
   406  009F                     	;# 
   407  010C                     	;# 
   408  010E                     	;# 
   409  0111                     	;# 
   410  0112                     	;# 
   411  0113                     	;# 
   412  0114                     	;# 
   413  0115                     	;# 
   414  0116                     	;# 
   415  0117                     	;# 
   416  0118                     	;# 
   417  0119                     	;# 
   418  011D                     	;# 
   419  018C                     	;# 
   420  018E                     	;# 
   421  0191                     	;# 
   422  0191                     	;# 
   423  0192                     	;# 
   424  0193                     	;# 
   425  0193                     	;# 
   426  0194                     	;# 
   427  0195                     	;# 
   428  0196                     	;# 
   429  020C                     	;# 
   430  0211                     	;# 
   431  0211                     	;# 
   432  0212                     	;# 
   433  0212                     	;# 
   434  0213                     	;# 
   435  0213                     	;# 
   436  0214                     	;# 
   437  0214                     	;# 
   438  0215                     	;# 
   439  0215                     	;# 
   440  0215                     	;# 
   441  0216                     	;# 
   442  0216                     	;# 
   443  0217                     	;# 
   444  0217                     	;# 
   445  0391                     	;# 
   446  0392                     	;# 
   447  0393                     	;# 
   448  0498                     	;# 
   449  0498                     	;# 
   450  0499                     	;# 
   451  049A                     	;# 
   452  049B                     	;# 
   453  049B                     	;# 
   454  049C                     	;# 
   455  049D                     	;# 
   456  049E                     	;# 
   457  049F                     	;# 
   458  0611                     	;# 
   459  0612                     	;# 
   460  0613                     	;# 
   461  0613                     	;# 
   462  0614                     	;# 
   463  0615                     	;# 
   464  0616                     	;# 
   465  0616                     	;# 
   466  0617                     	;# 
   467  0618                     	;# 
   468  0619                     	;# 
   469  0619                     	;# 
   470  061A                     	;# 
   471  061B                     	;# 
   472  061C                     	;# 
   473  061C                     	;# 
   474  0691                     	;# 
   475  0692                     	;# 
   476  0693                     	;# 
   477  0694                     	;# 
   478  0695                     	;# 
   479  0F0F                     	;# 
   480  0F10                     	;# 
   481  0F11                     	;# 
   482  0F12                     	;# 
   483  0F13                     	;# 
   484  0F14                     	;# 
   485  0F15                     	;# 
   486  0F16                     	;# 
   487  0F17                     	;# 
   488  0F18                     	;# 
   489  0F19                     	;# 
   490  0F1A                     	;# 
   491  0F1B                     	;# 
   492  0F1C                     	;# 
   493  0F1D                     	;# 
   494  0F1E                     	;# 
   495  0F1F                     	;# 
   496  0FE3                     	;# 
   497  0FE4                     	;# 
   498  0FE5                     	;# 
   499  0FE6                     	;# 
   500  0FE7                     	;# 
   501  0FE8                     	;# 
   502  0FE9                     	;# 
   503  0FEA                     	;# 
   504  0FEB                     	;# 
   505  0FED                     	;# 
   506  0FEE                     	;# 
   507  0FEF                     	;# 
   508  0000                     	;# 
   509  0001                     	;# 
   510  0002                     	;# 
   511  0003                     	;# 
   512  0004                     	;# 
   513  0005                     	;# 
   514  0006                     	;# 
   515  0007                     	;# 
   516  0008                     	;# 
   517  0009                     	;# 
   518  000A                     	;# 
   519  000B                     	;# 
   520  000C                     	;# 
   521  000E                     	;# 
   522  0011                     	;# 
   523  0012                     	;# 
   524  0013                     	;# 
   525  0015                     	;# 
   526  0016                     	;# 
   527  0016                     	;# 
   528  0017                     	;# 
   529  0018                     	;# 
   530  0019                     	;# 
   531  001A                     	;# 
   532  001B                     	;# 
   533  001C                     	;# 
   534  008C                     	;# 
   535  008E                     	;# 
   536  0091                     	;# 
   537  0092                     	;# 
   538  0093                     	;# 
   539  0095                     	;# 
   540  0096                     	;# 
   541  0097                     	;# 
   542  0099                     	;# 
   543  009A                     	;# 
   544  009B                     	;# 
   545  009B                     	;# 
   546  009C                     	;# 
   547  009D                     	;# 
   548  009E                     	;# 
   549  009F                     	;# 
   550  010C                     	;# 
   551  010E                     	;# 
   552  0111                     	;# 
   553  0112                     	;# 
   554  0113                     	;# 
   555  0114                     	;# 
   556  0115                     	;# 
   557  0116                     	;# 
   558  0117                     	;# 
   559  0118                     	;# 
   560  0119                     	;# 
   561  011D                     	;# 
   562  018C                     	;# 
   563  018E                     	;# 
   564  0191                     	;# 
   565  0191                     	;# 
   566  0192                     	;# 
   567  0193                     	;# 
   568  0193                     	;# 
   569  0194                     	;# 
   570  0195                     	;# 
   571  0196                     	;# 
   572  020C                     	;# 
   573  0211                     	;# 
   574  0211                     	;# 
   575  0212                     	;# 
   576  0212                     	;# 
   577  0213                     	;# 
   578  0213                     	;# 
   579  0214                     	;# 
   580  0214                     	;# 
   581  0215                     	;# 
   582  0215                     	;# 
   583  0215                     	;# 
   584  0216                     	;# 
   585  0216                     	;# 
   586  0217                     	;# 
   587  0217                     	;# 
   588  0391                     	;# 
   589  0392                     	;# 
   590  0393                     	;# 
   591  0498                     	;# 
   592  0498                     	;# 
   593  0499                     	;# 
   594  049A                     	;# 
   595  049B                     	;# 
   596  049B                     	;# 
   597  049C                     	;# 
   598  049D                     	;# 
   599  049E                     	;# 
   600  049F                     	;# 
   601  0611                     	;# 
   602  0612                     	;# 
   603  0613                     	;# 
   604  0613                     	;# 
   605  0614                     	;# 
   606  0615                     	;# 
   607  0616                     	;# 
   608  0616                     	;# 
   609  0617                     	;# 
   610  0618                     	;# 
   611  0619                     	;# 
   612  0619                     	;# 
   613  061A                     	;# 
   614  061B                     	;# 
   615  061C                     	;# 
   616  061C                     	;# 
   617  0691                     	;# 
   618  0692                     	;# 
   619  0693                     	;# 
   620  0694                     	;# 
   621  0695                     	;# 
   622  0F0F                     	;# 
   623  0F10                     	;# 
   624  0F11                     	;# 
   625  0F12                     	;# 
   626  0F13                     	;# 
   627  0F14                     	;# 
   628  0F15                     	;# 
   629  0F16                     	;# 
   630  0F17                     	;# 
   631  0F18                     	;# 
   632  0F19                     	;# 
   633  0F1A                     	;# 
   634  0F1B                     	;# 
   635  0F1C                     	;# 
   636  0F1D                     	;# 
   637  0F1E                     	;# 
   638  0F1F                     	;# 
   639  0FE3                     	;# 
   640  0FE4                     	;# 
   641  0FE5                     	;# 
   642  0FE6                     	;# 
   643  0FE7                     	;# 
   644  0FE8                     	;# 
   645  0FE9                     	;# 
   646  0FEA                     	;# 
   647  0FEB                     	;# 
   648  0FED                     	;# 
   649  0FEE                     	;# 
   650  0FEF                     	;# 
   651  0000                     	;# 
   652  0001                     	;# 
   653  0002                     	;# 
   654  0003                     	;# 
   655  0004                     	;# 
   656  0005                     	;# 
   657  0006                     	;# 
   658  0007                     	;# 
   659  0008                     	;# 
   660  0009                     	;# 
   661  000A                     	;# 
   662  000B                     	;# 
   663  000C                     	;# 
   664  000E                     	;# 
   665  0011                     	;# 
   666  0012                     	;# 
   667  0013                     	;# 
   668  0015                     	;# 
   669  0016                     	;# 
   670  0016                     	;# 
   671  0017                     	;# 
   672  0018                     	;# 
   673  0019                     	;# 
   674  001A                     	;# 
   675  001B                     	;# 
   676  001C                     	;# 
   677  008C                     	;# 
   678  008E                     	;# 
   679  0091                     	;# 
   680  0092                     	;# 
   681  0093                     	;# 
   682  0095                     	;# 
   683  0096                     	;# 
   684  0097                     	;# 
   685  0099                     	;# 
   686  009A                     	;# 
   687  009B                     	;# 
   688  009B                     	;# 
   689  009C                     	;# 
   690  009D                     	;# 
   691  009E                     	;# 
   692  009F                     	;# 
   693  010C                     	;# 
   694  010E                     	;# 
   695  0111                     	;# 
   696  0112                     	;# 
   697  0113                     	;# 
   698  0114                     	;# 
   699  0115                     	;# 
   700  0116                     	;# 
   701  0117                     	;# 
   702  0118                     	;# 
   703  0119                     	;# 
   704  011D                     	;# 
   705  018C                     	;# 
   706  018E                     	;# 
   707  0191                     	;# 
   708  0191                     	;# 
   709  0192                     	;# 
   710  0193                     	;# 
   711  0193                     	;# 
   712  0194                     	;# 
   713  0195                     	;# 
   714  0196                     	;# 
   715  020C                     	;# 
   716  0211                     	;# 
   717  0211                     	;# 
   718  0212                     	;# 
   719  0212                     	;# 
   720  0213                     	;# 
   721  0213                     	;# 
   722  0214                     	;# 
   723  0214                     	;# 
   724  0215                     	;# 
   725  0215                     	;# 
   726  0215                     	;# 
   727  0216                     	;# 
   728  0216                     	;# 
   729  0217                     	;# 
   730  0217                     	;# 
   731  0391                     	;# 
   732  0392                     	;# 
   733  0393                     	;# 
   734  0498                     	;# 
   735  0498                     	;# 
   736  0499                     	;# 
   737  049A                     	;# 
   738  049B                     	;# 
   739  049B                     	;# 
   740  049C                     	;# 
   741  049D                     	;# 
   742  049E                     	;# 
   743  049F                     	;# 
   744  0611                     	;# 
   745  0612                     	;# 
   746  0613                     	;# 
   747  0613                     	;# 
   748  0614                     	;# 
   749  0615                     	;# 
   750  0616                     	;# 
   751  0616                     	;# 
   752  0617                     	;# 
   753  0618                     	;# 
   754  0619                     	;# 
   755  0619                     	;# 
   756  061A                     	;# 
   757  061B                     	;# 
   758  061C                     	;# 
   759  061C                     	;# 
   760  0691                     	;# 
   761  0692                     	;# 
   762  0693                     	;# 
   763  0694                     	;# 
   764  0695                     	;# 
   765  0F0F                     	;# 
   766  0F10                     	;# 
   767  0F11                     	;# 
   768  0F12                     	;# 
   769  0F13                     	;# 
   770  0F14                     	;# 
   771  0F15                     	;# 
   772  0F16                     	;# 
   773  0F17                     	;# 
   774  0F18                     	;# 
   775  0F19                     	;# 
   776  0F1A                     	;# 
   777  0F1B                     	;# 
   778  0F1C                     	;# 
   779  0F1D                     	;# 
   780  0F1E                     	;# 
   781  0F1F                     	;# 
   782  0FE3                     	;# 
   783  0FE4                     	;# 
   784  0FE5                     	;# 
   785  0FE6                     	;# 
   786  0FE7                     	;# 
   787  0FE8                     	;# 
   788  0FE9                     	;# 
   789  0FEA                     	;# 
   790  0FEB                     	;# 
   791  0FED                     	;# 
   792  0FEE                     	;# 
   793  0FEF                     	;# 
   794  0000                     	;# 
   795  0001                     	;# 
   796  0002                     	;# 
   797  0003                     	;# 
   798  0004                     	;# 
   799  0005                     	;# 
   800  0006                     	;# 
   801  0007                     	;# 
   802  0008                     	;# 
   803  0009                     	;# 
   804  000A                     	;# 
   805  000B                     	;# 
   806  000C                     	;# 
   807  000E                     	;# 
   808  0011                     	;# 
   809  0012                     	;# 
   810  0013                     	;# 
   811  0015                     	;# 
   812  0016                     	;# 
   813  0016                     	;# 
   814  0017                     	;# 
   815  0018                     	;# 
   816  0019                     	;# 
   817  001A                     	;# 
   818  001B                     	;# 
   819  001C                     	;# 
   820  008C                     	;# 
   821  008E                     	;# 
   822  0091                     	;# 
   823  0092                     	;# 
   824  0093                     	;# 
   825  0095                     	;# 
   826  0096                     	;# 
   827  0097                     	;# 
   828  0099                     	;# 
   829  009A                     	;# 
   830  009B                     	;# 
   831  009B                     	;# 
   832  009C                     	;# 
   833  009D                     	;# 
   834  009E                     	;# 
   835  009F                     	;# 
   836  010C                     	;# 
   837  010E                     	;# 
   838  0111                     	;# 
   839  0112                     	;# 
   840  0113                     	;# 
   841  0114                     	;# 
   842  0115                     	;# 
   843  0116                     	;# 
   844  0117                     	;# 
   845  0118                     	;# 
   846  0119                     	;# 
   847  011D                     	;# 
   848  018C                     	;# 
   849  018E                     	;# 
   850  0191                     	;# 
   851  0191                     	;# 
   852  0192                     	;# 
   853  0193                     	;# 
   854  0193                     	;# 
   855  0194                     	;# 
   856  0195                     	;# 
   857  0196                     	;# 
   858  020C                     	;# 
   859  0211                     	;# 
   860  0211                     	;# 
   861  0212                     	;# 
   862  0212                     	;# 
   863  0213                     	;# 
   864  0213                     	;# 
   865  0214                     	;# 
   866  0214                     	;# 
   867  0215                     	;# 
   868  0215                     	;# 
   869  0215                     	;# 
   870  0216                     	;# 
   871  0216                     	;# 
   872  0217                     	;# 
   873  0217                     	;# 
   874  0391                     	;# 
   875  0392                     	;# 
   876  0393                     	;# 
   877  0498                     	;# 
   878  0498                     	;# 
   879  0499                     	;# 
   880  049A                     	;# 
   881  049B                     	;# 
   882  049B                     	;# 
   883  049C                     	;# 
   884  049D                     	;# 
   885  049E                     	;# 
   886  049F                     	;# 
   887  0611                     	;# 
   888  0612                     	;# 
   889  0613                     	;# 
   890  0613                     	;# 
   891  0614                     	;# 
   892  0615                     	;# 
   893  0616                     	;# 
   894  0616                     	;# 
   895  0617                     	;# 
   896  0618                     	;# 
   897  0619                     	;# 
   898  0619                     	;# 
   899  061A                     	;# 
   900  061B                     	;# 
   901  061C                     	;# 
   902  061C                     	;# 
   903  0691                     	;# 
   904  0692                     	;# 
   905  0693                     	;# 
   906  0694                     	;# 
   907  0695                     	;# 
   908  0F0F                     	;# 
   909  0F10                     	;# 
   910  0F11                     	;# 
   911  0F12                     	;# 
   912  0F13                     	;# 
   913  0F14                     	;# 
   914  0F15                     	;# 
   915  0F16                     	;# 
   916  0F17                     	;# 
   917  0F18                     	;# 
   918  0F19                     	;# 
   919  0F1A                     	;# 
   920  0F1B                     	;# 
   921  0F1C                     	;# 
   922  0F1D                     	;# 
   923  0F1E                     	;# 
   924  0F1F                     	;# 
   925  0FE3                     	;# 
   926  0FE4                     	;# 
   927  0FE5                     	;# 
   928  0FE6                     	;# 
   929  0FE7                     	;# 
   930  0FE8                     	;# 
   931  0FE9                     	;# 
   932  0FEA                     	;# 
   933  0FEB                     	;# 
   934  0FED                     	;# 
   935  0FEE                     	;# 
   936  0FEF                     	;# 
   937  0000                     	;# 
   938  0001                     	;# 
   939  0002                     	;# 
   940  0003                     	;# 
   941  0004                     	;# 
   942  0005                     	;# 
   943  0006                     	;# 
   944  0007                     	;# 
   945  0008                     	;# 
   946  0009                     	;# 
   947  000A                     	;# 
   948  000B                     	;# 
   949  000C                     	;# 
   950  000E                     	;# 
   951  0011                     	;# 
   952  0012                     	;# 
   953  0013                     	;# 
   954  0015                     	;# 
   955  0016                     	;# 
   956  0016                     	;# 
   957  0017                     	;# 
   958  0018                     	;# 
   959  0019                     	;# 
   960  001A                     	;# 
   961  001B                     	;# 
   962  001C                     	;# 
   963  008C                     	;# 
   964  008E                     	;# 
   965  0091                     	;# 
   966  0092                     	;# 
   967  0093                     	;# 
   968  0095                     	;# 
   969  0096                     	;# 
   970  0097                     	;# 
   971  0099                     	;# 
   972  009A                     	;# 
   973  009B                     	;# 
   974  009B                     	;# 
   975  009C                     	;# 
   976  009D                     	;# 
   977  009E                     	;# 
   978  009F                     	;# 
   979  010C                     	;# 
   980  010E                     	;# 
   981  0111                     	;# 
   982  0112                     	;# 
   983  0113                     	;# 
   984  0114                     	;# 
   985  0115                     	;# 
   986  0116                     	;# 
   987  0117                     	;# 
   988  0118                     	;# 
   989  0119                     	;# 
   990  011D                     	;# 
   991  018C                     	;# 
   992  018E                     	;# 
   993  0191                     	;# 
   994  0191                     	;# 
   995  0192                     	;# 
   996  0193                     	;# 
   997  0193                     	;# 
   998  0194                     	;# 
   999  0195                     	;# 
  1000  0196                     	;# 
  1001  020C                     	;# 
  1002  0211                     	;# 
  1003  0211                     	;# 
  1004  0212                     	;# 
  1005  0212                     	;# 
  1006  0213                     	;# 
  1007  0213                     	;# 
  1008  0214                     	;# 
  1009  0214                     	;# 
  1010  0215                     	;# 
  1011  0215                     	;# 
  1012  0215                     	;# 
  1013  0216                     	;# 
  1014  0216                     	;# 
  1015  0217                     	;# 
  1016  0217                     	;# 
  1017  0391                     	;# 
  1018  0392                     	;# 
  1019  0393                     	;# 
  1020  0498                     	;# 
  1021  0498                     	;# 
  1022  0499                     	;# 
  1023  049A                     	;# 
  1024  049B                     	;# 
  1025  049B                     	;# 
  1026  049C                     	;# 
  1027  049D                     	;# 
  1028  049E                     	;# 
  1029  049F                     	;# 
  1030  0611                     	;# 
  1031  0612                     	;# 
  1032  0613                     	;# 
  1033  0613                     	;# 
  1034  0614                     	;# 
  1035  0615                     	;# 
  1036  0616                     	;# 
  1037  0616                     	;# 
  1038  0617                     	;# 
  1039  0618                     	;# 
  1040  0619                     	;# 
  1041  0619                     	;# 
  1042  061A                     	;# 
  1043  061B                     	;# 
  1044  061C                     	;# 
  1045  061C                     	;# 
  1046  0691                     	;# 
  1047  0692                     	;# 
  1048  0693                     	;# 
  1049  0694                     	;# 
  1050  0695                     	;# 
  1051  0F0F                     	;# 
  1052  0F10                     	;# 
  1053  0F11                     	;# 
  1054  0F12                     	;# 
  1055  0F13                     	;# 
  1056  0F14                     	;# 
  1057  0F15                     	;# 
  1058  0F16                     	;# 
  1059  0F17                     	;# 
  1060  0F18                     	;# 
  1061  0F19                     	;# 
  1062  0F1A                     	;# 
  1063  0F1B                     	;# 
  1064  0F1C                     	;# 
  1065  0F1D                     	;# 
  1066  0F1E                     	;# 
  1067  0F1F                     	;# 
  1068  0FE3                     	;# 
  1069  0FE4                     	;# 
  1070  0FE5                     	;# 
  1071  0FE6                     	;# 
  1072  0FE7                     	;# 
  1073  0FE8                     	;# 
  1074  0FE9                     	;# 
  1075  0FEA                     	;# 
  1076  0FEB                     	;# 
  1077  0FED                     	;# 
  1078  0FEE                     	;# 
  1079  0FEF                     	;# 
  1080  0000                     	;# 
  1081  0001                     	;# 
  1082  0002                     	;# 
  1083  0003                     	;# 
  1084  0004                     	;# 
  1085  0005                     	;# 
  1086  0006                     	;# 
  1087  0007                     	;# 
  1088  0008                     	;# 
  1089  0009                     	;# 
  1090  000A                     	;# 
  1091  000B                     	;# 
  1092  000C                     	;# 
  1093  000E                     	;# 
  1094  0011                     	;# 
  1095  0012                     	;# 
  1096  0013                     	;# 
  1097  0015                     	;# 
  1098  0016                     	;# 
  1099  0016                     	;# 
  1100  0017                     	;# 
  1101  0018                     	;# 
  1102  0019                     	;# 
  1103  001A                     	;# 
  1104  001B                     	;# 
  1105  001C                     	;# 
  1106  008C                     	;# 
  1107  008E                     	;# 
  1108  0091                     	;# 
  1109  0092                     	;# 
  1110  0093                     	;# 
  1111  0095                     	;# 
  1112  0096                     	;# 
  1113  0097                     	;# 
  1114  0099                     	;# 
  1115  009A                     	;# 
  1116  009B                     	;# 
  1117  009B                     	;# 
  1118  009C                     	;# 
  1119  009D                     	;# 
  1120  009E                     	;# 
  1121  009F                     	;# 
  1122  010C                     	;# 
  1123  010E                     	;# 
  1124  0111                     	;# 
  1125  0112                     	;# 
  1126  0113                     	;# 
  1127  0114                     	;# 
  1128  0115                     	;# 
  1129  0116                     	;# 
  1130  0117                     	;# 
  1131  0118                     	;# 
  1132  0119                     	;# 
  1133  011D                     	;# 
  1134  018C                     	;# 
  1135  018E                     	;# 
  1136  0191                     	;# 
  1137  0191                     	;# 
  1138  0192                     	;# 
  1139  0193                     	;# 
  1140  0193                     	;# 
  1141  0194                     	;# 
  1142  0195                     	;# 
  1143  0196                     	;# 
  1144  020C                     	;# 
  1145  0211                     	;# 
  1146  0211                     	;# 
  1147  0212                     	;# 
  1148  0212                     	;# 
  1149  0213                     	;# 
  1150  0213                     	;# 
  1151  0214                     	;# 
  1152  0214                     	;# 
  1153  0215                     	;# 
  1154  0215                     	;# 
  1155  0215                     	;# 
  1156  0216                     	;# 
  1157  0216                     	;# 
  1158  0217                     	;# 
  1159  0217                     	;# 
  1160  0391                     	;# 
  1161  0392                     	;# 
  1162  0393                     	;# 
  1163  0498                     	;# 
  1164  0498                     	;# 
  1165  0499                     	;# 
  1166  049A                     	;# 
  1167  049B                     	;# 
  1168  049B                     	;# 
  1169  049C                     	;# 
  1170  049D                     	;# 
  1171  049E                     	;# 
  1172  049F                     	;# 
  1173  0611                     	;# 
  1174  0612                     	;# 
  1175  0613                     	;# 
  1176  0613                     	;# 
  1177  0614                     	;# 
  1178  0615                     	;# 
  1179  0616                     	;# 
  1180  0616                     	;# 
  1181  0617                     	;# 
  1182  0618                     	;# 
  1183  0619                     	;# 
  1184  0619                     	;# 
  1185  061A                     	;# 
  1186  061B                     	;# 
  1187  061C                     	;# 
  1188  061C                     	;# 
  1189  0691                     	;# 
  1190  0692                     	;# 
  1191  0693                     	;# 
  1192  0694                     	;# 
  1193  0695                     	;# 
  1194  0F0F                     	;# 
  1195  0F10                     	;# 
  1196  0F11                     	;# 
  1197  0F12                     	;# 
  1198  0F13                     	;# 
  1199  0F14                     	;# 
  1200  0F15                     	;# 
  1201  0F16                     	;# 
  1202  0F17                     	;# 
  1203  0F18                     	;# 
  1204  0F19                     	;# 
  1205  0F1A                     	;# 
  1206  0F1B                     	;# 
  1207  0F1C                     	;# 
  1208  0F1D                     	;# 
  1209  0F1E                     	;# 
  1210  0F1F                     	;# 
  1211  0FE3                     	;# 
  1212  0FE4                     	;# 
  1213  0FE5                     	;# 
  1214  0FE6                     	;# 
  1215  0FE7                     	;# 
  1216  0FE8                     	;# 
  1217  0FE9                     	;# 
  1218  0FEA                     	;# 
  1219  0FEB                     	;# 
  1220  0FED                     	;# 
  1221  0FEE                     	;# 
  1222  0FEF                     	;# 
  1223                           
  1224                           	psect	nvCOMMON
  1225  0070                     __pnvCOMMON:
  1226  0070                     _timer1ReloadVal:
  1227  0070                     	ds	2
  1228  0072                     _IOCAF3_InterruptHandler:
  1229  0072                     	ds	2
  1230  0074                     _IOCAF1_InterruptHandler:
  1231  0074                     	ds	2
  1232  0076                     _IOCAF0_InterruptHandler:
  1233  0076                     	ds	2
  1234  0078                     _timer0ReloadVal:
  1235  0078                     	ds	1
  1236                           
  1237                           	psect	nvBANK0
  1238  0020                     __pnvBANK0:
  1239  0020                     _TMR0_InterruptHandler:
  1240  0020                     	ds	2
  1241  0022                     _TMR1_InterruptHandler:
  1242  0022                     	ds	2
  1243  0024                     _IOCAF5_InterruptHandler:
  1244  0024                     	ds	2
  1245  0026                     _IOCAF4_InterruptHandler:
  1246  0026                     	ds	2
  1247  0015                     _TMR0	set	21
  1248  001C                     _T2CONbits	set	28
  1249  001C                     _T2CON	set	28
  1250  001A                     _TMR2	set	26
  1251  001B                     _PR2	set	27
  1252  0019                     _T1GCONbits	set	25
  1253  0018                     _T1CONbits	set	24
  1254  0018                     _T1CON	set	24
  1255  0011                     _PIR1bits	set	17
  1256  0016                     _TMR1L	set	22
  1257  0017                     _TMR1H	set	23
  1258  0019                     _T1GCON	set	25
  1259  000B                     _INTCONbits	set	11
  1260  0097                     _WDTCON	set	151
  1261  0099                     _OSCCON	set	153
  1262  0095                     _OPTION_REG	set	149
  1263  0091                     _PIE1bits	set	145
  1264  0095                     _OPTION_REGbits	set	149
  1265  008E                     _TRISC	set	142
  1266  008C                     _TRISA	set	140
  1267  0116                     _BORCON	set	278
  1268  011D                     _APFCON	set	285
  1269  010E                     _LATC	set	270
  1270  010C                     _LATA	set	268
  1271  018C                     _ANSELA	set	396
  1272  018E                     _ANSELC	set	398
  1273  020C                     _WPUA	set	524
  1274  0391                     _IOCAPbits	set	913
  1275  0392                     _IOCANbits	set	914
  1276  0393                     _IOCAFbits	set	915
  1277  0614                     _PWM2DCL	set	1556
  1278  0615                     _PWM2DCH	set	1557
  1279  0616                     _PWM2CON	set	1558
  1280                           
  1281                           	psect	cinit
  1282  0033                     start_initialization:	
  1283                           ; #config settings
  1284                           
  1285  0033                     __initialization:
  1286  0033                     end_of_initialization:	
  1287                           ;End of C runtime variable initialization code
  1288                           
  1289  0033                     __end_of__initialization:
  1290  0033  107E               	bcf	int$flags,0	;clear compiler interrupt flag (level 1)
  1291  0034  0020               	movlb	0
  1292  0035  29B1               	ljmp	_main	;jump to C main() function
  1293                           
  1294                           	psect	cstackCOMMON
  1295  0079                     __pcstackCOMMON:
  1296  0079                     ?_IOCAF0_DefaultInterruptHandler:
  1297  0079                     ??_IOCAF0_DefaultInterruptHandler:	
  1298                           ; 1 bytes @ 0x0
  1299                           
  1300  0079                     ?_IOCAF1_DefaultInterruptHandler:	
  1301                           ; 1 bytes @ 0x0
  1302                           
  1303  0079                     ??_IOCAF1_DefaultInterruptHandler:	
  1304                           ; 1 bytes @ 0x0
  1305                           
  1306  0079                     ?_IOCAF3_DefaultInterruptHandler:	
  1307                           ; 1 bytes @ 0x0
  1308                           
  1309  0079                     ??_IOCAF3_DefaultInterruptHandler:	
  1310                           ; 1 bytes @ 0x0
  1311                           
  1312  0079                     ?_IOCAF4_DefaultInterruptHandler:	
  1313                           ; 1 bytes @ 0x0
  1314                           
  1315  0079                     ??_IOCAF4_DefaultInterruptHandler:	
  1316                           ; 1 bytes @ 0x0
  1317                           
  1318  0079                     ?_IOCAF5_DefaultInterruptHandler:	
  1319                           ; 1 bytes @ 0x0
  1320                           
  1321  0079                     ??_IOCAF5_DefaultInterruptHandler:	
  1322                           ; 1 bytes @ 0x0
  1323                           
  1324  0079                     ?_IOCAF0_ISR:	
  1325                           ; 1 bytes @ 0x0
  1326                           
  1327  0079                     ??_IOCAF0_ISR:	
  1328                           ; 1 bytes @ 0x0
  1329                           
  1330  0079                     ?_IOCAF1_ISR:	
  1331                           ; 1 bytes @ 0x0
  1332                           
  1333  0079                     ??_IOCAF1_ISR:	
  1334                           ; 1 bytes @ 0x0
  1335                           
  1336  0079                     ?_IOCAF3_ISR:	
  1337                           ; 1 bytes @ 0x0
  1338                           
  1339  0079                     ??_IOCAF3_ISR:	
  1340                           ; 1 bytes @ 0x0
  1341                           
  1342  0079                     ?_IOCAF4_ISR:	
  1343                           ; 1 bytes @ 0x0
  1344                           
  1345  0079                     ??_IOCAF4_ISR:	
  1346                           ; 1 bytes @ 0x0
  1347                           
  1348  0079                     ?_IOCAF5_ISR:	
  1349                           ; 1 bytes @ 0x0
  1350                           
  1351  0079                     ??_IOCAF5_ISR:	
  1352                           ; 1 bytes @ 0x0
  1353                           
  1354  0079                     ?_TMR1_DefaultInterruptHandler:	
  1355                           ; 1 bytes @ 0x0
  1356                           
  1357  0079                     ??_TMR1_DefaultInterruptHandler:	
  1358                           ; 1 bytes @ 0x0
  1359                           
  1360  0079                     ?_TMR0_DefaultInterruptHandler:	
  1361                           ; 1 bytes @ 0x0
  1362                           
  1363  0079                     ??_TMR0_DefaultInterruptHandler:	
  1364                           ; 1 bytes @ 0x0
  1365                           
  1366  0079                     ?_OSCILLATOR_Initialize:	
  1367                           ; 1 bytes @ 0x0
  1368                           
  1369  0079                     ?_WDT_Initialize:	
  1370                           ; 1 bytes @ 0x0
  1371                           
  1372  0079                     ?_PWM2_Initialize:	
  1373                           ; 1 bytes @ 0x0
  1374                           
  1375  0079                     ?_PIN_MANAGER_Initialize:	
  1376                           ; 1 bytes @ 0x0
  1377                           
  1378  0079                     ?_PIN_MANAGER_IOC:	
  1379                           ; 1 bytes @ 0x0
  1380                           
  1381  0079                     ??_PIN_MANAGER_IOC:	
  1382                           ; 1 bytes @ 0x0
  1383                           
  1384  0079                     ?_TMR1_Initialize:	
  1385                           ; 1 bytes @ 0x0
  1386                           
  1387  0079                     ?_TMR1_WriteTimer:	
  1388                           ; 1 bytes @ 0x0
  1389                           
  1390  0079                     ?_TMR1_ISR:	
  1391                           ; 1 bytes @ 0x0
  1392                           
  1393  0079                     ?_TMR2_Initialize:	
  1394                           ; 1 bytes @ 0x0
  1395                           
  1396  0079                     ?_TMR0_Initialize:	
  1397                           ; 1 bytes @ 0x0
  1398                           
  1399  0079                     ?_TMR0_ISR:	
  1400                           ; 1 bytes @ 0x0
  1401                           
  1402  0079                     ??_TMR0_ISR:	
  1403                           ; 1 bytes @ 0x0
  1404                           
  1405  0079                     ?_SYSTEM_Initialize:	
  1406                           ; 1 bytes @ 0x0
  1407                           
  1408  0079                     ?_INTERRUPT_InterruptManager:	
  1409                           ; 1 bytes @ 0x0
  1410                           
  1411  0079                     ?_main:	
  1412                           ; 1 bytes @ 0x0
  1413                           
  1414  0079                     TMR1_WriteTimer@timerVal:	
  1415                           ; 1 bytes @ 0x0
  1416                           
  1417                           
  1418                           ; 2 bytes @ 0x0
  1419  0079                     	ds	2
  1420  007B                     ??_IOCAF0_SetInterruptHandler:
  1421  007B                     ??_IOCAF1_SetInterruptHandler:	
  1422                           ; 1 bytes @ 0x2
  1423                           
  1424  007B                     ??_IOCAF3_SetInterruptHandler:	
  1425                           ; 1 bytes @ 0x2
  1426                           
  1427  007B                     ??_IOCAF4_SetInterruptHandler:	
  1428                           ; 1 bytes @ 0x2
  1429                           
  1430  007B                     ??_IOCAF5_SetInterruptHandler:	
  1431                           ; 1 bytes @ 0x2
  1432                           
  1433  007B                     ??_TMR1_SetInterruptHandler:	
  1434                           ; 1 bytes @ 0x2
  1435                           
  1436  007B                     ??_TMR0_SetInterruptHandler:	
  1437                           ; 1 bytes @ 0x2
  1438                           
  1439  007B                     ??_OSCILLATOR_Initialize:	
  1440                           ; 1 bytes @ 0x2
  1441                           
  1442  007B                     ??_WDT_Initialize:	
  1443                           ; 1 bytes @ 0x2
  1444                           
  1445  007B                     ??_PWM2_Initialize:	
  1446                           ; 1 bytes @ 0x2
  1447                           
  1448  007B                     ??_PIN_MANAGER_Initialize:	
  1449                           ; 1 bytes @ 0x2
  1450                           
  1451  007B                     ??_TMR1_Initialize:	
  1452                           ; 1 bytes @ 0x2
  1453                           
  1454  007B                     ??_TMR1_WriteTimer:	
  1455                           ; 1 bytes @ 0x2
  1456                           
  1457  007B                     ??_TMR1_ISR:	
  1458                           ; 1 bytes @ 0x2
  1459                           
  1460  007B                     ??_TMR2_Initialize:	
  1461                           ; 1 bytes @ 0x2
  1462                           
  1463  007B                     ??_TMR0_Initialize:	
  1464                           ; 1 bytes @ 0x2
  1465                           
  1466  007B                     ??_INTERRUPT_InterruptManager:	
  1467                           ; 1 bytes @ 0x2
  1468                           
  1469                           
  1470                           ; 1 bytes @ 0x2
  1471  007B                     	ds	1
  1472  007C                     ??_SYSTEM_Initialize:
  1473  007C                     ??_main:	
  1474                           ; 1 bytes @ 0x3
  1475                           
  1476                           
  1477                           	psect	cstackBANK0
  1478  0028                     __pcstackBANK0:	
  1479                           ; 1 bytes @ 0x3
  1480                           
  1481  0028                     ?_IOCAF0_SetInterruptHandler:
  1482  0028                     ?_IOCAF1_SetInterruptHandler:	
  1483                           ; 1 bytes @ 0x0
  1484                           
  1485  0028                     ?_IOCAF3_SetInterruptHandler:	
  1486                           ; 1 bytes @ 0x0
  1487                           
  1488  0028                     ?_IOCAF4_SetInterruptHandler:	
  1489                           ; 1 bytes @ 0x0
  1490                           
  1491  0028                     ?_IOCAF5_SetInterruptHandler:	
  1492                           ; 1 bytes @ 0x0
  1493                           
  1494  0028                     ?_TMR1_SetInterruptHandler:	
  1495                           ; 1 bytes @ 0x0
  1496                           
  1497  0028                     ?_TMR0_SetInterruptHandler:	
  1498                           ; 1 bytes @ 0x0
  1499                           
  1500  0028                     IOCAF0_SetInterruptHandler@InterruptHandler:	
  1501                           ; 1 bytes @ 0x0
  1502                           
  1503  0028                     IOCAF1_SetInterruptHandler@InterruptHandler:	
  1504                           ; 2 bytes @ 0x0
  1505                           
  1506  0028                     IOCAF3_SetInterruptHandler@InterruptHandler:	
  1507                           ; 2 bytes @ 0x0
  1508                           
  1509  0028                     IOCAF4_SetInterruptHandler@InterruptHandler:	
  1510                           ; 2 bytes @ 0x0
  1511                           
  1512  0028                     IOCAF5_SetInterruptHandler@InterruptHandler:	
  1513                           ; 2 bytes @ 0x0
  1514                           
  1515  0028                     TMR1_SetInterruptHandler@InterruptHandler:	
  1516                           ; 2 bytes @ 0x0
  1517                           
  1518  0028                     TMR0_SetInterruptHandler@InterruptHandler:	
  1519                           ; 2 bytes @ 0x0
  1520                           
  1521                           
  1522                           ; 2 bytes @ 0x0
  1523  0028                     	ds	2
  1524                           
  1525                           	psect	maintext
  1526  01B1                     __pmaintext:	
  1527 ;;
  1528 ;;Main: autosize = 0, tempsize = 0, incstack = 0, save=0
  1529 ;;
  1530 ;; *************** function _main *****************
  1531 ;; Defined at:
  1532 ;;		line 49 in file "main.c"
  1533 ;; Parameters:    Size  Location     Type
  1534 ;;		None
  1535 ;; Auto vars:     Size  Location     Type
  1536 ;;		None
  1537 ;; Return value:  Size  Location     Type
  1538 ;;                  1    wreg      void 
  1539 ;; Registers used:
  1540 ;;		wreg, status,2, status,0, pclath, cstack
  1541 ;; Tracked objects:
  1542 ;;		On entry : B1F/0
  1543 ;;		On exit  : 0/0
  1544 ;;		Unchanged: 0/0
  1545 ;; Data sizes:     COMMON   BANK0   BANK1
  1546 ;;      Params:         0       0       0
  1547 ;;      Locals:         0       0       0
  1548 ;;      Temps:          0       0       0
  1549 ;;      Totals:         0       0       0
  1550 ;;Total ram usage:        0 bytes
  1551 ;; Hardware stack levels required when called:    7
  1552 ;; This function calls:
  1553 ;;		_SYSTEM_Initialize
  1554 ;; This function is called by:
  1555 ;;		Startup code after reset
  1556 ;; This function uses a non-reentrant model
  1557 ;;
  1558                           
  1559                           
  1560                           ;psect for function _main
  1561  01B1                     _main:
  1562  01B1                     l1387:	
  1563                           ;incstack = 0
  1564                           ; Regs used in _main: [wreg+status,2+status,0+pclath+cstack]
  1565                           
  1566                           
  1567                           ;main.c: 52:     SYSTEM_Initialize();
  1568  01B1  3180  20C5  3181   	fcall	_SYSTEM_Initialize
  1569  01B4                     l316:	
  1570                           ;main.c: 69:     while (1)
  1571                           
  1572  01B4                     l317:	
  1573                           ;main.c: 70:     {;main.c: 72:     }
  1574                           
  1575  01B4  29B4               	goto	l316
  1576  01B5  2832               	ljmp	start
  1577  01B6                     __end_of_main:
  1578                           
  1579                           	psect	text1
  1580  00C5                     __ptext1:	
  1581 ;; *************** function _SYSTEM_Initialize *****************
  1582 ;; Defined at:
  1583 ;;		line 50 in file "mcc_generated_files/mcc.c"
  1584 ;; Parameters:    Size  Location     Type
  1585 ;;		None
  1586 ;; Auto vars:     Size  Location     Type
  1587 ;;		None
  1588 ;; Return value:  Size  Location     Type
  1589 ;;                  1    wreg      void 
  1590 ;; Registers used:
  1591 ;;		wreg, status,2, status,0, pclath, cstack
  1592 ;; Tracked objects:
  1593 ;;		On entry : 0/0
  1594 ;;		On exit  : 0/0
  1595 ;;		Unchanged: 0/0
  1596 ;; Data sizes:     COMMON   BANK0   BANK1
  1597 ;;      Params:         0       0       0
  1598 ;;      Locals:         0       0       0
  1599 ;;      Temps:          0       0       0
  1600 ;;      Totals:         0       0       0
  1601 ;;Total ram usage:        0 bytes
  1602 ;; Hardware stack levels used:    1
  1603 ;; Hardware stack levels required when called:    6
  1604 ;; This function calls:
  1605 ;;		_OSCILLATOR_Initialize
  1606 ;;		_PIN_MANAGER_Initialize
  1607 ;;		_PWM2_Initialize
  1608 ;;		_TMR0_Initialize
  1609 ;;		_TMR1_Initialize
  1610 ;;		_TMR2_Initialize
  1611 ;;		_WDT_Initialize
  1612 ;; This function is called by:
  1613 ;;		_main
  1614 ;; This function uses a non-reentrant model
  1615 ;;
  1616                           
  1617                           
  1618                           ;psect for function _SYSTEM_Initialize
  1619  00C5                     _SYSTEM_Initialize:
  1620  00C5                     l1385:	
  1621                           ;incstack = 0
  1622                           ; Regs used in _SYSTEM_Initialize: [wreg+status,2+status,0+pclath+cstack]
  1623                           
  1624                           
  1625                           ;mcc_generated_files/mcc.c: 53:     PIN_MANAGER_Initialize();
  1626  00C5  3180  2036  3180   	fcall	_PIN_MANAGER_Initialize
  1627                           
  1628                           ;mcc_generated_files/mcc.c: 54:     OSCILLATOR_Initialize();
  1629  00C8  3181  21AB  3180   	fcall	_OSCILLATOR_Initialize
  1630                           
  1631                           ;mcc_generated_files/mcc.c: 55:     WDT_Initialize();
  1632  00CB  3181  21B6  3180   	fcall	_WDT_Initialize
  1633                           
  1634                           ;mcc_generated_files/mcc.c: 56:     PWM2_Initialize();
  1635  00CE  3181  2179  3180   	fcall	_PWM2_Initialize
  1636                           
  1637                           ;mcc_generated_files/mcc.c: 57:     TMR2_Initialize();
  1638  00D1  3181  2170  3180   	fcall	_TMR2_Initialize
  1639                           
  1640                           ;mcc_generated_files/mcc.c: 58:     TMR1_Initialize();
  1641  00D4  3180  20AC  3180   	fcall	_TMR1_Initialize
  1642                           
  1643                           ;mcc_generated_files/mcc.c: 59:     TMR0_Initialize();
  1644  00D7  3180  20DB  3180   	fcall	_TMR0_Initialize
  1645  00DA                     l278:
  1646  00DA  0008               	return
  1647  00DB                     __end_of_SYSTEM_Initialize:
  1648                           
  1649                           	psect	text2
  1650  01B6                     __ptext2:	
  1651 ;; *************** function _WDT_Initialize *****************
  1652 ;; Defined at:
  1653 ;;		line 70 in file "mcc_generated_files/mcc.c"
  1654 ;; Parameters:    Size  Location     Type
  1655 ;;		None
  1656 ;; Auto vars:     Size  Location     Type
  1657 ;;		None
  1658 ;; Return value:  Size  Location     Type
  1659 ;;                  1    wreg      void 
  1660 ;; Registers used:
  1661 ;;		wreg
  1662 ;; Tracked objects:
  1663 ;;		On entry : 0/0
  1664 ;;		On exit  : 0/0
  1665 ;;		Unchanged: 0/0
  1666 ;; Data sizes:     COMMON   BANK0   BANK1
  1667 ;;      Params:         0       0       0
  1668 ;;      Locals:         0       0       0
  1669 ;;      Temps:          0       0       0
  1670 ;;      Totals:         0       0       0
  1671 ;;Total ram usage:        0 bytes
  1672 ;; Hardware stack levels used:    1
  1673 ;; Hardware stack levels required when called:    4
  1674 ;; This function calls:
  1675 ;;		Nothing
  1676 ;; This function is called by:
  1677 ;;		_SYSTEM_Initialize
  1678 ;; This function uses a non-reentrant model
  1679 ;;
  1680                           
  1681                           
  1682                           ;psect for function _WDT_Initialize
  1683  01B6                     _WDT_Initialize:
  1684  01B6                     l1005:	
  1685                           ;incstack = 0
  1686                           ; Regs used in _WDT_Initialize: [wreg]
  1687                           
  1688                           
  1689                           ;mcc_generated_files/mcc.c: 73:     WDTCON = 0x16;
  1690  01B6  3016               	movlw	22
  1691  01B7  0021               	movlb	1	; select bank1
  1692  01B8  0097               	movwf	23	;volatile
  1693  01B9                     l284:
  1694  01B9  0008               	return
  1695  01BA                     __end_of_WDT_Initialize:
  1696                           
  1697                           	psect	text3
  1698  0170                     __ptext3:	
  1699 ;; *************** function _TMR2_Initialize *****************
  1700 ;; Defined at:
  1701 ;;		line 62 in file "mcc_generated_files/tmr2.c"
  1702 ;; Parameters:    Size  Location     Type
  1703 ;;		None
  1704 ;; Auto vars:     Size  Location     Type
  1705 ;;		None
  1706 ;; Return value:  Size  Location     Type
  1707 ;;                  1    wreg      void 
  1708 ;; Registers used:
  1709 ;;		wreg
  1710 ;; Tracked objects:
  1711 ;;		On entry : 0/0
  1712 ;;		On exit  : 0/0
  1713 ;;		Unchanged: 0/0
  1714 ;; Data sizes:     COMMON   BANK0   BANK1
  1715 ;;      Params:         0       0       0
  1716 ;;      Locals:         0       0       0
  1717 ;;      Temps:          0       0       0
  1718 ;;      Totals:         0       0       0
  1719 ;;Total ram usage:        0 bytes
  1720 ;; Hardware stack levels used:    1
  1721 ;; Hardware stack levels required when called:    4
  1722 ;; This function calls:
  1723 ;;		Nothing
  1724 ;; This function is called by:
  1725 ;;		_SYSTEM_Initialize
  1726 ;; This function uses a non-reentrant model
  1727 ;;
  1728                           
  1729                           
  1730                           ;psect for function _TMR2_Initialize
  1731  0170                     _TMR2_Initialize:
  1732  0170                     l985:	
  1733                           ;incstack = 0
  1734                           ; Regs used in _TMR2_Initialize: [wreg]
  1735                           
  1736                           
  1737                           ;mcc_generated_files/tmr2.c: 67:     PR2 = 0x1B;
  1738  0170  301B               	movlw	27
  1739  0171  0020               	movlb	0	; select bank0
  1740  0172  009B               	movwf	27	;volatile
  1741                           
  1742                           ;mcc_generated_files/tmr2.c: 70:     TMR2 = 0x01;
  1743  0173  3001               	movlw	1
  1744  0174  009A               	movwf	26	;volatile
  1745  0175                     l987:
  1746                           
  1747                           ;mcc_generated_files/tmr2.c: 73:     PIR1bits.TMR2IF = 0;
  1748  0175  1091               	bcf	17,1	;volatile
  1749                           
  1750                           ;mcc_generated_files/tmr2.c: 76:     T2CON = 0x04;
  1751  0176  3004               	movlw	4
  1752  0177  009C               	movwf	28	;volatile
  1753  0178                     l200:
  1754  0178  0008               	return
  1755  0179                     __end_of_TMR2_Initialize:
  1756                           
  1757                           	psect	text4
  1758  00AC                     __ptext4:	
  1759 ;; *************** function _TMR1_Initialize *****************
  1760 ;; Defined at:
  1761 ;;		line 64 in file "mcc_generated_files/tmr1.c"
  1762 ;; Parameters:    Size  Location     Type
  1763 ;;		None
  1764 ;; Auto vars:     Size  Location     Type
  1765 ;;		None
  1766 ;; Return value:  Size  Location     Type
  1767 ;;                  1    wreg      void 
  1768 ;; Registers used:
  1769 ;;		wreg, status,2, status,0, pclath, cstack
  1770 ;; Tracked objects:
  1771 ;;		On entry : 0/0
  1772 ;;		On exit  : 0/0
  1773 ;;		Unchanged: 0/0
  1774 ;; Data sizes:     COMMON   BANK0   BANK1
  1775 ;;      Params:         0       0       0
  1776 ;;      Locals:         0       0       0
  1777 ;;      Temps:          0       0       0
  1778 ;;      Totals:         0       0       0
  1779 ;;Total ram usage:        0 bytes
  1780 ;; Hardware stack levels used:    1
  1781 ;; Hardware stack levels required when called:    5
  1782 ;; This function calls:
  1783 ;;		_TMR1_SetInterruptHandler
  1784 ;; This function is called by:
  1785 ;;		_SYSTEM_Initialize
  1786 ;; This function uses a non-reentrant model
  1787 ;;
  1788                           
  1789                           
  1790                           ;psect for function _TMR1_Initialize
  1791  00AC                     _TMR1_Initialize:
  1792  00AC                     l1357:	
  1793                           ;incstack = 0
  1794                           ; Regs used in _TMR1_Initialize: [wreg+status,2+status,0+pclath+cstack]
  1795                           
  1796                           
  1797                           ;mcc_generated_files/tmr1.c: 69:     T1GCON = 0x00;
  1798  00AC  0020               	movlb	0	; select bank0
  1799  00AD  0199               	clrf	25	;volatile
  1800  00AE                     l1359:
  1801                           
  1802                           ;mcc_generated_files/tmr1.c: 72:     TMR1H = 0xFC;
  1803  00AE  30FC               	movlw	252
  1804  00AF  0097               	movwf	23	;volatile
  1805  00B0                     l1361:
  1806                           
  1807                           ;mcc_generated_files/tmr1.c: 75:     TMR1L = 0x87;
  1808  00B0  3087               	movlw	135
  1809  00B1  0096               	movwf	22	;volatile
  1810  00B2                     l1363:
  1811                           
  1812                           ;mcc_generated_files/tmr1.c: 78:     PIR1bits.TMR1IF = 0;
  1813  00B2  1011               	bcf	17,0	;volatile
  1814  00B3                     l1365:
  1815                           
  1816                           ;mcc_generated_files/tmr1.c: 81:     timer1ReloadVal=(uint16_t)((TMR1H << 8) | TMR1L);
  1817  00B3  0817               	movf	23,w	;volatile
  1818  00B4  00F1               	movwf	_timer1ReloadVal+1	;volatile
  1819  00B5  0816               	movf	22,w	;volatile
  1820  00B6  00F0               	movwf	_timer1ReloadVal	;volatile
  1821  00B7                     l1367:
  1822                           
  1823                           ;mcc_generated_files/tmr1.c: 84:     PIE1bits.TMR1IE = 1;
  1824  00B7  0021               	movlb	1	; select bank1
  1825  00B8  1411               	bsf	17,0	;volatile
  1826  00B9                     l1369:
  1827                           
  1828                           ;mcc_generated_files/tmr1.c: 87:     TMR1_SetInterruptHandler(TMR1_DefaultInterruptHandl
      +                          er);
  1829  00B9  30BA               	movlw	low _TMR1_DefaultInterruptHandler
  1830  00BA  0020               	movlb	0	; select bank0
  1831  00BB  00A8               	movwf	TMR1_SetInterruptHandler@InterruptHandler
  1832  00BC  3001               	movlw	high _TMR1_DefaultInterruptHandler
  1833  00BD  00A9               	movwf	TMR1_SetInterruptHandler@InterruptHandler+1
  1834  00BE  3181  2181  3180   	fcall	_TMR1_SetInterruptHandler
  1835  00C1                     l1371:
  1836                           
  1837                           ;mcc_generated_files/tmr1.c: 90:     T1CON = 0x01;
  1838  00C1  3001               	movlw	1
  1839  00C2  0020               	movlb	0	; select bank0
  1840  00C3  0098               	movwf	24	;volatile
  1841  00C4                     l154:
  1842  00C4  0008               	return
  1843  00C5                     __end_of_TMR1_Initialize:
  1844                           
  1845                           	psect	text5
  1846  0181                     __ptext5:	
  1847 ;; *************** function _TMR1_SetInterruptHandler *****************
  1848 ;; Defined at:
  1849 ;;		line 171 in file "mcc_generated_files/tmr1.c"
  1850 ;; Parameters:    Size  Location     Type
  1851 ;;  InterruptHan    2    0[BANK0 ] PTR FTN()void 
  1852 ;;		 -> TMR1_DefaultInterruptHandler(1), 
  1853 ;; Auto vars:     Size  Location     Type
  1854 ;;		None
  1855 ;; Return value:  Size  Location     Type
  1856 ;;                  1    wreg      void 
  1857 ;; Registers used:
  1858 ;;		wreg
  1859 ;; Tracked objects:
  1860 ;;		On entry : 0/0
  1861 ;;		On exit  : 0/0
  1862 ;;		Unchanged: 0/0
  1863 ;; Data sizes:     COMMON   BANK0   BANK1
  1864 ;;      Params:         0       2       0
  1865 ;;      Locals:         0       0       0
  1866 ;;      Temps:          0       0       0
  1867 ;;      Totals:         0       2       0
  1868 ;;Total ram usage:        2 bytes
  1869 ;; Hardware stack levels used:    1
  1870 ;; Hardware stack levels required when called:    4
  1871 ;; This function calls:
  1872 ;;		Nothing
  1873 ;; This function is called by:
  1874 ;;		_TMR1_Initialize
  1875 ;; This function uses a non-reentrant model
  1876 ;;
  1877                           
  1878                           
  1879                           ;psect for function _TMR1_SetInterruptHandler
  1880  0181                     _TMR1_SetInterruptHandler:
  1881  0181                     l1299:	
  1882                           ;incstack = 0
  1883                           ; Regs used in _TMR1_SetInterruptHandler: [wreg]
  1884                           
  1885                           
  1886                           ;mcc_generated_files/tmr1.c: 172:     TMR1_InterruptHandler = InterruptHandler;
  1887  0181  0020               	movlb	0	; select bank0
  1888  0182  0829               	movf	TMR1_SetInterruptHandler@InterruptHandler+1,w
  1889  0183  00A3               	movwf	_TMR1_InterruptHandler+1
  1890  0184  0828               	movf	TMR1_SetInterruptHandler@InterruptHandler,w
  1891  0185  00A2               	movwf	_TMR1_InterruptHandler
  1892  0186                     l184:
  1893  0186  0008               	return
  1894  0187                     __end_of_TMR1_SetInterruptHandler:
  1895                           
  1896                           	psect	text6
  1897  00DB                     __ptext6:	
  1898 ;; *************** function _TMR0_Initialize *****************
  1899 ;; Defined at:
  1900 ;;		line 64 in file "mcc_generated_files/tmr0.c"
  1901 ;; Parameters:    Size  Location     Type
  1902 ;;		None
  1903 ;; Auto vars:     Size  Location     Type
  1904 ;;		None
  1905 ;; Return value:  Size  Location     Type
  1906 ;;                  1    wreg      void 
  1907 ;; Registers used:
  1908 ;;		wreg, status,2, status,0, pclath, cstack
  1909 ;; Tracked objects:
  1910 ;;		On entry : 0/0
  1911 ;;		On exit  : 0/0
  1912 ;;		Unchanged: 0/0
  1913 ;; Data sizes:     COMMON   BANK0   BANK1
  1914 ;;      Params:         0       0       0
  1915 ;;      Locals:         0       0       0
  1916 ;;      Temps:          1       0       0
  1917 ;;      Totals:         1       0       0
  1918 ;;Total ram usage:        1 bytes
  1919 ;; Hardware stack levels used:    1
  1920 ;; Hardware stack levels required when called:    5
  1921 ;; This function calls:
  1922 ;;		_TMR0_SetInterruptHandler
  1923 ;; This function is called by:
  1924 ;;		_SYSTEM_Initialize
  1925 ;; This function uses a non-reentrant model
  1926 ;;
  1927                           
  1928                           
  1929                           ;psect for function _TMR0_Initialize
  1930  00DB                     _TMR0_Initialize:
  1931  00DB                     l1373:	
  1932                           ;incstack = 0
  1933                           ; Regs used in _TMR0_Initialize: [wreg+status,2+status,0+pclath+cstack]
  1934                           
  1935                           
  1936                           ;mcc_generated_files/tmr0.c: 69:     OPTION_REG = (uint8_t)((OPTION_REG & 0xC0) | (0xD6 
      +                          & 0x3F));
  1937  00DB  0021               	movlb	1	; select bank1
  1938  00DC  0815               	movf	21,w	;volatile
  1939  00DD  39C0               	andlw	192
  1940  00DE  3816               	iorlw	22
  1941  00DF  0095               	movwf	21	;volatile
  1942  00E0                     l1375:
  1943                           
  1944                           ;mcc_generated_files/tmr0.c: 72:     TMR0 = 0x3D;
  1945  00E0  303D               	movlw	61
  1946  00E1  0020               	movlb	0	; select bank0
  1947  00E2  0095               	movwf	21	;volatile
  1948  00E3                     l1377:
  1949                           
  1950                           ;mcc_generated_files/tmr0.c: 75:     timer0ReloadVal= 61;
  1951  00E3  303D               	movlw	61
  1952  00E4  00FB               	movwf	??_TMR0_Initialize
  1953  00E5  087B               	movf	??_TMR0_Initialize,w
  1954  00E6  00F8               	movwf	_timer0ReloadVal	;volatile
  1955  00E7                     l1379:
  1956                           
  1957                           ;mcc_generated_files/tmr0.c: 78:     INTCONbits.TMR0IF = 0;
  1958  00E7  110B               	bcf	11,2	;volatile
  1959  00E8                     l1381:
  1960                           
  1961                           ;mcc_generated_files/tmr0.c: 81:     INTCONbits.TMR0IE = 1;
  1962  00E8  168B               	bsf	11,5	;volatile
  1963  00E9                     l1383:
  1964                           
  1965                           ;mcc_generated_files/tmr0.c: 84:     TMR0_SetInterruptHandler(TMR0_DefaultInterruptHandl
      +                          er);
  1966  00E9  30BB               	movlw	low _TMR0_DefaultInterruptHandler
  1967  00EA  00A8               	movwf	TMR0_SetInterruptHandler@InterruptHandler
  1968  00EB  3001               	movlw	high _TMR0_DefaultInterruptHandler
  1969  00EC  00A9               	movwf	TMR0_SetInterruptHandler@InterruptHandler+1
  1970  00ED  3181  2187  3180   	fcall	_TMR0_SetInterruptHandler
  1971  00F0                     l236:
  1972  00F0  0008               	return
  1973  00F1                     __end_of_TMR0_Initialize:
  1974                           
  1975                           	psect	text7
  1976  0187                     __ptext7:	
  1977 ;; *************** function _TMR0_SetInterruptHandler *****************
  1978 ;; Defined at:
  1979 ;;		line 125 in file "mcc_generated_files/tmr0.c"
  1980 ;; Parameters:    Size  Location     Type
  1981 ;;  InterruptHan    2    0[BANK0 ] PTR FTN()void 
  1982 ;;		 -> TMR0_DefaultInterruptHandler(1), 
  1983 ;; Auto vars:     Size  Location     Type
  1984 ;;		None
  1985 ;; Return value:  Size  Location     Type
  1986 ;;                  1    wreg      void 
  1987 ;; Registers used:
  1988 ;;		wreg
  1989 ;; Tracked objects:
  1990 ;;		On entry : 0/0
  1991 ;;		On exit  : 0/0
  1992 ;;		Unchanged: 0/0
  1993 ;; Data sizes:     COMMON   BANK0   BANK1
  1994 ;;      Params:         0       2       0
  1995 ;;      Locals:         0       0       0
  1996 ;;      Temps:          0       0       0
  1997 ;;      Totals:         0       2       0
  1998 ;;Total ram usage:        2 bytes
  1999 ;; Hardware stack levels used:    1
  2000 ;; Hardware stack levels required when called:    4
  2001 ;; This function calls:
  2002 ;;		Nothing
  2003 ;; This function is called by:
  2004 ;;		_TMR0_Initialize
  2005 ;; This function uses a non-reentrant model
  2006 ;;
  2007                           
  2008                           
  2009                           ;psect for function _TMR0_SetInterruptHandler
  2010  0187                     _TMR0_SetInterruptHandler:
  2011  0187                     l1301:	
  2012                           ;incstack = 0
  2013                           ; Regs used in _TMR0_SetInterruptHandler: [wreg]
  2014                           
  2015                           
  2016                           ;mcc_generated_files/tmr0.c: 126:     TMR0_InterruptHandler = InterruptHandler;
  2017  0187  0020               	movlb	0	; select bank0
  2018  0188  0829               	movf	TMR0_SetInterruptHandler@InterruptHandler+1,w
  2019  0189  00A1               	movwf	_TMR0_InterruptHandler+1
  2020  018A  0828               	movf	TMR0_SetInterruptHandler@InterruptHandler,w
  2021  018B  00A0               	movwf	_TMR0_InterruptHandler
  2022  018C                     l252:
  2023  018C  0008               	return
  2024  018D                     __end_of_TMR0_SetInterruptHandler:
  2025                           
  2026                           	psect	text8
  2027  0179                     __ptext8:	
  2028 ;; *************** function _PWM2_Initialize *****************
  2029 ;; Defined at:
  2030 ;;		line 58 in file "mcc_generated_files/pwm2.c"
  2031 ;; Parameters:    Size  Location     Type
  2032 ;;		None
  2033 ;; Auto vars:     Size  Location     Type
  2034 ;;		None
  2035 ;; Return value:  Size  Location     Type
  2036 ;;                  1    wreg      void 
  2037 ;; Registers used:
  2038 ;;		wreg
  2039 ;; Tracked objects:
  2040 ;;		On entry : 0/0
  2041 ;;		On exit  : 0/0
  2042 ;;		Unchanged: 0/0
  2043 ;; Data sizes:     COMMON   BANK0   BANK1
  2044 ;;      Params:         0       0       0
  2045 ;;      Locals:         0       0       0
  2046 ;;      Temps:          0       0       0
  2047 ;;      Totals:         0       0       0
  2048 ;;Total ram usage:        0 bytes
  2049 ;; Hardware stack levels used:    1
  2050 ;; Hardware stack levels required when called:    4
  2051 ;; This function calls:
  2052 ;;		Nothing
  2053 ;; This function is called by:
  2054 ;;		_SYSTEM_Initialize
  2055 ;; This function uses a non-reentrant model
  2056 ;;
  2057                           
  2058                           
  2059                           ;psect for function _PWM2_Initialize
  2060  0179                     _PWM2_Initialize:
  2061  0179                     l1007:	
  2062                           ;incstack = 0
  2063                           ; Regs used in _PWM2_Initialize: [wreg]
  2064                           
  2065                           
  2066                           ;mcc_generated_files/pwm2.c: 62:     PWM2CON = 0xC0;
  2067  0179  30C0               	movlw	192
  2068  017A  002C               	movlb	12	; select bank12
  2069  017B  0096               	movwf	22	;volatile
  2070                           
  2071                           ;mcc_generated_files/pwm2.c: 65:     PWM2DCH = 0x06;
  2072  017C  3006               	movlw	6
  2073  017D  0095               	movwf	21	;volatile
  2074                           
  2075                           ;mcc_generated_files/pwm2.c: 68:     PWM2DCL = 0x80;
  2076  017E  3080               	movlw	128
  2077  017F  0094               	movwf	20	;volatile
  2078  0180                     l328:
  2079  0180  0008               	return
  2080  0181                     __end_of_PWM2_Initialize:
  2081                           
  2082                           	psect	text9
  2083  0036                     __ptext9:	
  2084 ;; *************** function _PIN_MANAGER_Initialize *****************
  2085 ;; Defined at:
  2086 ;;		line 61 in file "mcc_generated_files/pin_manager.c"
  2087 ;; Parameters:    Size  Location     Type
  2088 ;;		None
  2089 ;; Auto vars:     Size  Location     Type
  2090 ;;		None
  2091 ;; Return value:  Size  Location     Type
  2092 ;;                  1    wreg      void 
  2093 ;; Registers used:
  2094 ;;		wreg, status,2, status,0, pclath, cstack
  2095 ;; Tracked objects:
  2096 ;;		On entry : 0/0
  2097 ;;		On exit  : 0/0
  2098 ;;		Unchanged: 0/0
  2099 ;; Data sizes:     COMMON   BANK0   BANK1
  2100 ;;      Params:         0       0       0
  2101 ;;      Locals:         0       0       0
  2102 ;;      Temps:          0       0       0
  2103 ;;      Totals:         0       0       0
  2104 ;;Total ram usage:        0 bytes
  2105 ;; Hardware stack levels used:    1
  2106 ;; Hardware stack levels required when called:    5
  2107 ;; This function calls:
  2108 ;;		_IOCAF0_SetInterruptHandler
  2109 ;;		_IOCAF1_SetInterruptHandler
  2110 ;;		_IOCAF3_SetInterruptHandler
  2111 ;;		_IOCAF4_SetInterruptHandler
  2112 ;;		_IOCAF5_SetInterruptHandler
  2113 ;; This function is called by:
  2114 ;;		_SYSTEM_Initialize
  2115 ;; This function uses a non-reentrant model
  2116 ;;
  2117                           
  2118                           
  2119                           ;psect for function _PIN_MANAGER_Initialize
  2120  0036                     _PIN_MANAGER_Initialize:
  2121  0036                     l1303:	
  2122                           ;incstack = 0
  2123                           ; Regs used in _PIN_MANAGER_Initialize: [wreg+status,2+status,0+pclath+cstack]
  2124                           
  2125                           
  2126                           ;mcc_generated_files/pin_manager.c: 66:     LATA = 0x00;
  2127  0036  0022               	movlb	2	; select bank2
  2128  0037  018C               	clrf	12	;volatile
  2129                           
  2130                           ;mcc_generated_files/pin_manager.c: 67:     LATC = 0x00;
  2131  0038  018E               	clrf	14	;volatile
  2132  0039                     l1305:
  2133                           
  2134                           ;mcc_generated_files/pin_manager.c: 72:     TRISA = 0x3F;
  2135  0039  303F               	movlw	63
  2136  003A  0021               	movlb	1	; select bank1
  2137  003B  008C               	movwf	12	;volatile
  2138  003C                     l1307:
  2139                           
  2140                           ;mcc_generated_files/pin_manager.c: 73:     TRISC = 0x27;
  2141  003C  3027               	movlw	39
  2142  003D  008E               	movwf	14	;volatile
  2143  003E                     l1309:
  2144                           
  2145                           ;mcc_generated_files/pin_manager.c: 78:     ANSELC = 0x03;
  2146  003E  3003               	movlw	3
  2147  003F  0023               	movlb	3	; select bank3
  2148  0040  008E               	movwf	14	;volatile
  2149  0041                     l1311:
  2150                           
  2151                           ;mcc_generated_files/pin_manager.c: 79:     ANSELA = 0x04;
  2152  0041  3004               	movlw	4
  2153  0042  008C               	movwf	12	;volatile
  2154                           
  2155                           ;mcc_generated_files/pin_manager.c: 84:     WPUA = 0x00;
  2156  0043  0024               	movlb	4	; select bank4
  2157  0044  018C               	clrf	12	;volatile
  2158  0045                     l1313:
  2159                           
  2160                           ;mcc_generated_files/pin_manager.c: 85:     OPTION_REGbits.nWPUEN = 1;
  2161  0045  0021               	movlb	1	; select bank1
  2162  0046  1795               	bsf	21,7	;volatile
  2163                           
  2164                           ;mcc_generated_files/pin_manager.c: 91:     APFCON = 0x00;
  2165  0047  0022               	movlb	2	; select bank2
  2166  0048  019D               	clrf	29	;volatile
  2167  0049                     l1315:
  2168                           
  2169                           ;mcc_generated_files/pin_manager.c: 97:     IOCAFbits.IOCAF0 = 0;
  2170  0049  0027               	movlb	7	; select bank7
  2171  004A  1013               	bcf	19,0	;volatile
  2172  004B                     l1317:
  2173                           
  2174                           ;mcc_generated_files/pin_manager.c: 99:     IOCAFbits.IOCAF1 = 0;
  2175  004B  1093               	bcf	19,1	;volatile
  2176  004C                     l1319:
  2177                           
  2178                           ;mcc_generated_files/pin_manager.c: 101:     IOCAFbits.IOCAF3 = 0;
  2179  004C  1193               	bcf	19,3	;volatile
  2180  004D                     l1321:
  2181                           
  2182                           ;mcc_generated_files/pin_manager.c: 103:     IOCAFbits.IOCAF4 = 0;
  2183  004D  1213               	bcf	19,4	;volatile
  2184  004E                     l1323:
  2185                           
  2186                           ;mcc_generated_files/pin_manager.c: 105:     IOCAFbits.IOCAF5 = 0;
  2187  004E  1293               	bcf	19,5	;volatile
  2188  004F                     l1325:
  2189                           
  2190                           ;mcc_generated_files/pin_manager.c: 107:     IOCANbits.IOCAN0 = 1;
  2191  004F  1412               	bsf	18,0	;volatile
  2192  0050                     l1327:
  2193                           
  2194                           ;mcc_generated_files/pin_manager.c: 109:     IOCANbits.IOCAN1 = 1;
  2195  0050  1492               	bsf	18,1	;volatile
  2196  0051                     l1329:
  2197                           
  2198                           ;mcc_generated_files/pin_manager.c: 111:     IOCANbits.IOCAN3 = 1;
  2199  0051  1592               	bsf	18,3	;volatile
  2200  0052                     l1331:
  2201                           
  2202                           ;mcc_generated_files/pin_manager.c: 113:     IOCANbits.IOCAN4 = 1;
  2203  0052  1612               	bsf	18,4	;volatile
  2204  0053                     l1333:
  2205                           
  2206                           ;mcc_generated_files/pin_manager.c: 115:     IOCANbits.IOCAN5 = 1;
  2207  0053  1692               	bsf	18,5	;volatile
  2208  0054                     l1335:
  2209                           
  2210                           ;mcc_generated_files/pin_manager.c: 117:     IOCAPbits.IOCAP0 = 1;
  2211  0054  1411               	bsf	17,0	;volatile
  2212  0055                     l1337:
  2213                           
  2214                           ;mcc_generated_files/pin_manager.c: 119:     IOCAPbits.IOCAP1 = 1;
  2215  0055  1491               	bsf	17,1	;volatile
  2216  0056                     l1339:
  2217                           
  2218                           ;mcc_generated_files/pin_manager.c: 121:     IOCAPbits.IOCAP3 = 1;
  2219  0056  1591               	bsf	17,3	;volatile
  2220  0057                     l1341:
  2221                           
  2222                           ;mcc_generated_files/pin_manager.c: 123:     IOCAPbits.IOCAP4 = 1;
  2223  0057  1611               	bsf	17,4	;volatile
  2224  0058                     l1343:
  2225                           
  2226                           ;mcc_generated_files/pin_manager.c: 125:     IOCAPbits.IOCAP5 = 1;
  2227  0058  1691               	bsf	17,5	;volatile
  2228  0059                     l1345:
  2229                           
  2230                           ;mcc_generated_files/pin_manager.c: 130:     IOCAF0_SetInterruptHandler(IOCAF0_DefaultIn
      +                          terruptHandler);
  2231  0059  30C0               	movlw	low _IOCAF0_DefaultInterruptHandler
  2232  005A  0020               	movlb	0	; select bank0
  2233  005B  00A8               	movwf	IOCAF0_SetInterruptHandler@InterruptHandler
  2234  005C  3001               	movlw	high _IOCAF0_DefaultInterruptHandler
  2235  005D  00A9               	movwf	IOCAF0_SetInterruptHandler@InterruptHandler+1
  2236  005E  3181  21A5  3180   	fcall	_IOCAF0_SetInterruptHandler
  2237  0061                     l1347:
  2238                           
  2239                           ;mcc_generated_files/pin_manager.c: 131:     IOCAF1_SetInterruptHandler(IOCAF1_DefaultIn
      +                          terruptHandler);
  2240  0061  30BF               	movlw	low _IOCAF1_DefaultInterruptHandler
  2241  0062  0020               	movlb	0	; select bank0
  2242  0063  00A8               	movwf	IOCAF1_SetInterruptHandler@InterruptHandler
  2243  0064  3001               	movlw	high _IOCAF1_DefaultInterruptHandler
  2244  0065  00A9               	movwf	IOCAF1_SetInterruptHandler@InterruptHandler+1
  2245  0066  3181  219F  3180   	fcall	_IOCAF1_SetInterruptHandler
  2246  0069                     l1349:
  2247                           
  2248                           ;mcc_generated_files/pin_manager.c: 132:     IOCAF3_SetInterruptHandler(IOCAF3_DefaultIn
      +                          terruptHandler);
  2249  0069  30BE               	movlw	low _IOCAF3_DefaultInterruptHandler
  2250  006A  0020               	movlb	0	; select bank0
  2251  006B  00A8               	movwf	IOCAF3_SetInterruptHandler@InterruptHandler
  2252  006C  3001               	movlw	high _IOCAF3_DefaultInterruptHandler
  2253  006D  00A9               	movwf	IOCAF3_SetInterruptHandler@InterruptHandler+1
  2254  006E  3181  2199  3180   	fcall	_IOCAF3_SetInterruptHandler
  2255  0071                     l1351:
  2256                           
  2257                           ;mcc_generated_files/pin_manager.c: 133:     IOCAF4_SetInterruptHandler(IOCAF4_DefaultIn
      +                          terruptHandler);
  2258  0071  30BD               	movlw	low _IOCAF4_DefaultInterruptHandler
  2259  0072  0020               	movlb	0	; select bank0
  2260  0073  00A8               	movwf	IOCAF4_SetInterruptHandler@InterruptHandler
  2261  0074  3001               	movlw	high _IOCAF4_DefaultInterruptHandler
  2262  0075  00A9               	movwf	IOCAF4_SetInterruptHandler@InterruptHandler+1
  2263  0076  3181  2193  3180   	fcall	_IOCAF4_SetInterruptHandler
  2264  0079                     l1353:
  2265                           
  2266                           ;mcc_generated_files/pin_manager.c: 134:     IOCAF5_SetInterruptHandler(IOCAF5_DefaultIn
      +                          terruptHandler);
  2267  0079  30BC               	movlw	low _IOCAF5_DefaultInterruptHandler
  2268  007A  0020               	movlb	0	; select bank0
  2269  007B  00A8               	movwf	IOCAF5_SetInterruptHandler@InterruptHandler
  2270  007C  3001               	movlw	high _IOCAF5_DefaultInterruptHandler
  2271  007D  00A9               	movwf	IOCAF5_SetInterruptHandler@InterruptHandler+1
  2272  007E  3181  218D  3180   	fcall	_IOCAF5_SetInterruptHandler
  2273  0081                     l1355:
  2274                           
  2275                           ;mcc_generated_files/pin_manager.c: 137:     INTCONbits.IOCIE = 1;
  2276  0081  158B               	bsf	11,3	;volatile
  2277  0082                     l69:
  2278  0082  0008               	return
  2279  0083                     __end_of_PIN_MANAGER_Initialize:
  2280                           
  2281                           	psect	text10
  2282  018D                     __ptext10:	
  2283 ;; *************** function _IOCAF5_SetInterruptHandler *****************
  2284 ;; Defined at:
  2285 ;;		line 308 in file "mcc_generated_files/pin_manager.c"
  2286 ;; Parameters:    Size  Location     Type
  2287 ;;  InterruptHan    2    0[BANK0 ] PTR FTN()void 
  2288 ;;		 -> IOCAF5_DefaultInterruptHandler(1), 
  2289 ;; Auto vars:     Size  Location     Type
  2290 ;;		None
  2291 ;; Return value:  Size  Location     Type
  2292 ;;                  1    wreg      void 
  2293 ;; Registers used:
  2294 ;;		wreg
  2295 ;; Tracked objects:
  2296 ;;		On entry : 0/0
  2297 ;;		On exit  : 0/0
  2298 ;;		Unchanged: 0/0
  2299 ;; Data sizes:     COMMON   BANK0   BANK1
  2300 ;;      Params:         0       2       0
  2301 ;;      Locals:         0       0       0
  2302 ;;      Temps:          0       0       0
  2303 ;;      Totals:         0       2       0
  2304 ;;Total ram usage:        2 bytes
  2305 ;; Hardware stack levels used:    1
  2306 ;; Hardware stack levels required when called:    4
  2307 ;; This function calls:
  2308 ;;		Nothing
  2309 ;; This function is called by:
  2310 ;;		_PIN_MANAGER_Initialize
  2311 ;; This function uses a non-reentrant model
  2312 ;;
  2313                           
  2314                           
  2315                           ;psect for function _IOCAF5_SetInterruptHandler
  2316  018D                     _IOCAF5_SetInterruptHandler:
  2317  018D                     l1297:	
  2318                           ;incstack = 0
  2319                           ; Regs used in _IOCAF5_SetInterruptHandler: [wreg]
  2320                           
  2321                           
  2322                           ;mcc_generated_files/pin_manager.c: 309:     IOCAF5_InterruptHandler = InterruptHandler;
  2323  018D  0020               	movlb	0	; select bank0
  2324  018E  0829               	movf	IOCAF5_SetInterruptHandler@InterruptHandler+1,w
  2325  018F  00A5               	movwf	_IOCAF5_InterruptHandler+1
  2326  0190  0828               	movf	IOCAF5_SetInterruptHandler@InterruptHandler,w
  2327  0191  00A4               	movwf	_IOCAF5_InterruptHandler
  2328  0192                     l124:
  2329  0192  0008               	return
  2330  0193                     __end_of_IOCAF5_SetInterruptHandler:
  2331                           
  2332                           	psect	text11
  2333  0193                     __ptext11:	
  2334 ;; *************** function _IOCAF4_SetInterruptHandler *****************
  2335 ;; Defined at:
  2336 ;;		line 278 in file "mcc_generated_files/pin_manager.c"
  2337 ;; Parameters:    Size  Location     Type
  2338 ;;  InterruptHan    2    0[BANK0 ] PTR FTN()void 
  2339 ;;		 -> IOCAF4_DefaultInterruptHandler(1), 
  2340 ;; Auto vars:     Size  Location     Type
  2341 ;;		None
  2342 ;; Return value:  Size  Location     Type
  2343 ;;                  1    wreg      void 
  2344 ;; Registers used:
  2345 ;;		wreg
  2346 ;; Tracked objects:
  2347 ;;		On entry : 0/0
  2348 ;;		On exit  : 0/0
  2349 ;;		Unchanged: 0/0
  2350 ;; Data sizes:     COMMON   BANK0   BANK1
  2351 ;;      Params:         0       2       0
  2352 ;;      Locals:         0       0       0
  2353 ;;      Temps:          0       0       0
  2354 ;;      Totals:         0       2       0
  2355 ;;Total ram usage:        2 bytes
  2356 ;; Hardware stack levels used:    1
  2357 ;; Hardware stack levels required when called:    4
  2358 ;; This function calls:
  2359 ;;		Nothing
  2360 ;; This function is called by:
  2361 ;;		_PIN_MANAGER_Initialize
  2362 ;; This function uses a non-reentrant model
  2363 ;;
  2364                           
  2365                           
  2366                           ;psect for function _IOCAF4_SetInterruptHandler
  2367  0193                     _IOCAF4_SetInterruptHandler:
  2368  0193                     l1295:	
  2369                           ;incstack = 0
  2370                           ; Regs used in _IOCAF4_SetInterruptHandler: [wreg]
  2371                           
  2372                           
  2373                           ;mcc_generated_files/pin_manager.c: 279:     IOCAF4_InterruptHandler = InterruptHandler;
  2374  0193  0020               	movlb	0	; select bank0
  2375  0194  0829               	movf	IOCAF4_SetInterruptHandler@InterruptHandler+1,w
  2376  0195  00A7               	movwf	_IOCAF4_InterruptHandler+1
  2377  0196  0828               	movf	IOCAF4_SetInterruptHandler@InterruptHandler,w
  2378  0197  00A6               	movwf	_IOCAF4_InterruptHandler
  2379  0198                     l114:
  2380  0198  0008               	return
  2381  0199                     __end_of_IOCAF4_SetInterruptHandler:
  2382                           
  2383                           	psect	text12
  2384  0199                     __ptext12:	
  2385 ;; *************** function _IOCAF3_SetInterruptHandler *****************
  2386 ;; Defined at:
  2387 ;;		line 248 in file "mcc_generated_files/pin_manager.c"
  2388 ;; Parameters:    Size  Location     Type
  2389 ;;  InterruptHan    2    0[BANK0 ] PTR FTN()void 
  2390 ;;		 -> IOCAF3_DefaultInterruptHandler(1), 
  2391 ;; Auto vars:     Size  Location     Type
  2392 ;;		None
  2393 ;; Return value:  Size  Location     Type
  2394 ;;                  1    wreg      void 
  2395 ;; Registers used:
  2396 ;;		wreg
  2397 ;; Tracked objects:
  2398 ;;		On entry : 0/0
  2399 ;;		On exit  : 0/0
  2400 ;;		Unchanged: 0/0
  2401 ;; Data sizes:     COMMON   BANK0   BANK1
  2402 ;;      Params:         0       2       0
  2403 ;;      Locals:         0       0       0
  2404 ;;      Temps:          0       0       0
  2405 ;;      Totals:         0       2       0
  2406 ;;Total ram usage:        2 bytes
  2407 ;; Hardware stack levels used:    1
  2408 ;; Hardware stack levels required when called:    4
  2409 ;; This function calls:
  2410 ;;		Nothing
  2411 ;; This function is called by:
  2412 ;;		_PIN_MANAGER_Initialize
  2413 ;; This function uses a non-reentrant model
  2414 ;;
  2415                           
  2416                           
  2417                           ;psect for function _IOCAF3_SetInterruptHandler
  2418  0199                     _IOCAF3_SetInterruptHandler:
  2419  0199                     l1293:	
  2420                           ;incstack = 0
  2421                           ; Regs used in _IOCAF3_SetInterruptHandler: [wreg]
  2422                           
  2423                           
  2424                           ;mcc_generated_files/pin_manager.c: 249:     IOCAF3_InterruptHandler = InterruptHandler;
  2425  0199  0020               	movlb	0	; select bank0
  2426  019A  0829               	movf	IOCAF3_SetInterruptHandler@InterruptHandler+1,w
  2427  019B  00F3               	movwf	_IOCAF3_InterruptHandler+1
  2428  019C  0828               	movf	IOCAF3_SetInterruptHandler@InterruptHandler,w
  2429  019D  00F2               	movwf	_IOCAF3_InterruptHandler
  2430  019E                     l104:
  2431  019E  0008               	return
  2432  019F                     __end_of_IOCAF3_SetInterruptHandler:
  2433                           
  2434                           	psect	text13
  2435  019F                     __ptext13:	
  2436 ;; *************** function _IOCAF1_SetInterruptHandler *****************
  2437 ;; Defined at:
  2438 ;;		line 218 in file "mcc_generated_files/pin_manager.c"
  2439 ;; Parameters:    Size  Location     Type
  2440 ;;  InterruptHan    2    0[BANK0 ] PTR FTN()void 
  2441 ;;		 -> IOCAF1_DefaultInterruptHandler(1), 
  2442 ;; Auto vars:     Size  Location     Type
  2443 ;;		None
  2444 ;; Return value:  Size  Location     Type
  2445 ;;                  1    wreg      void 
  2446 ;; Registers used:
  2447 ;;		wreg
  2448 ;; Tracked objects:
  2449 ;;		On entry : 0/0
  2450 ;;		On exit  : 0/0
  2451 ;;		Unchanged: 0/0
  2452 ;; Data sizes:     COMMON   BANK0   BANK1
  2453 ;;      Params:         0       2       0
  2454 ;;      Locals:         0       0       0
  2455 ;;      Temps:          0       0       0
  2456 ;;      Totals:         0       2       0
  2457 ;;Total ram usage:        2 bytes
  2458 ;; Hardware stack levels used:    1
  2459 ;; Hardware stack levels required when called:    4
  2460 ;; This function calls:
  2461 ;;		Nothing
  2462 ;; This function is called by:
  2463 ;;		_PIN_MANAGER_Initialize
  2464 ;; This function uses a non-reentrant model
  2465 ;;
  2466                           
  2467                           
  2468                           ;psect for function _IOCAF1_SetInterruptHandler
  2469  019F                     _IOCAF1_SetInterruptHandler:
  2470  019F                     l1291:	
  2471                           ;incstack = 0
  2472                           ; Regs used in _IOCAF1_SetInterruptHandler: [wreg]
  2473                           
  2474                           
  2475                           ;mcc_generated_files/pin_manager.c: 219:     IOCAF1_InterruptHandler = InterruptHandler;
  2476  019F  0020               	movlb	0	; select bank0
  2477  01A0  0829               	movf	IOCAF1_SetInterruptHandler@InterruptHandler+1,w
  2478  01A1  00F5               	movwf	_IOCAF1_InterruptHandler+1
  2479  01A2  0828               	movf	IOCAF1_SetInterruptHandler@InterruptHandler,w
  2480  01A3  00F4               	movwf	_IOCAF1_InterruptHandler
  2481  01A4                     l94:
  2482  01A4  0008               	return
  2483  01A5                     __end_of_IOCAF1_SetInterruptHandler:
  2484                           
  2485                           	psect	text14
  2486  01A5                     __ptext14:	
  2487 ;; *************** function _IOCAF0_SetInterruptHandler *****************
  2488 ;; Defined at:
  2489 ;;		line 188 in file "mcc_generated_files/pin_manager.c"
  2490 ;; Parameters:    Size  Location     Type
  2491 ;;  InterruptHan    2    0[BANK0 ] PTR FTN()void 
  2492 ;;		 -> IOCAF0_DefaultInterruptHandler(1), 
  2493 ;; Auto vars:     Size  Location     Type
  2494 ;;		None
  2495 ;; Return value:  Size  Location     Type
  2496 ;;                  1    wreg      void 
  2497 ;; Registers used:
  2498 ;;		wreg
  2499 ;; Tracked objects:
  2500 ;;		On entry : 0/0
  2501 ;;		On exit  : 0/0
  2502 ;;		Unchanged: 0/0
  2503 ;; Data sizes:     COMMON   BANK0   BANK1
  2504 ;;      Params:         0       2       0
  2505 ;;      Locals:         0       0       0
  2506 ;;      Temps:          0       0       0
  2507 ;;      Totals:         0       2       0
  2508 ;;Total ram usage:        2 bytes
  2509 ;; Hardware stack levels used:    1
  2510 ;; Hardware stack levels required when called:    4
  2511 ;; This function calls:
  2512 ;;		Nothing
  2513 ;; This function is called by:
  2514 ;;		_PIN_MANAGER_Initialize
  2515 ;; This function uses a non-reentrant model
  2516 ;;
  2517                           
  2518                           
  2519                           ;psect for function _IOCAF0_SetInterruptHandler
  2520  01A5                     _IOCAF0_SetInterruptHandler:
  2521  01A5                     l1289:	
  2522                           ;incstack = 0
  2523                           ; Regs used in _IOCAF0_SetInterruptHandler: [wreg]
  2524                           
  2525                           
  2526                           ;mcc_generated_files/pin_manager.c: 189:     IOCAF0_InterruptHandler = InterruptHandler;
  2527  01A5  0020               	movlb	0	; select bank0
  2528  01A6  0829               	movf	IOCAF0_SetInterruptHandler@InterruptHandler+1,w
  2529  01A7  00F7               	movwf	_IOCAF0_InterruptHandler+1
  2530  01A8  0828               	movf	IOCAF0_SetInterruptHandler@InterruptHandler,w
  2531  01A9  00F6               	movwf	_IOCAF0_InterruptHandler
  2532  01AA                     l84:
  2533  01AA  0008               	return
  2534  01AB                     __end_of_IOCAF0_SetInterruptHandler:
  2535                           
  2536                           	psect	text15
  2537  01AB                     __ptext15:	
  2538 ;; *************** function _OSCILLATOR_Initialize *****************
  2539 ;; Defined at:
  2540 ;;		line 62 in file "mcc_generated_files/mcc.c"
  2541 ;; Parameters:    Size  Location     Type
  2542 ;;		None
  2543 ;; Auto vars:     Size  Location     Type
  2544 ;;		None
  2545 ;; Return value:  Size  Location     Type
  2546 ;;                  1    wreg      void 
  2547 ;; Registers used:
  2548 ;;		wreg, status,2
  2549 ;; Tracked objects:
  2550 ;;		On entry : 0/0
  2551 ;;		On exit  : 0/0
  2552 ;;		Unchanged: 0/0
  2553 ;; Data sizes:     COMMON   BANK0   BANK1
  2554 ;;      Params:         0       0       0
  2555 ;;      Locals:         0       0       0
  2556 ;;      Temps:          0       0       0
  2557 ;;      Totals:         0       0       0
  2558 ;;Total ram usage:        0 bytes
  2559 ;; Hardware stack levels used:    1
  2560 ;; Hardware stack levels required when called:    4
  2561 ;; This function calls:
  2562 ;;		Nothing
  2563 ;; This function is called by:
  2564 ;;		_SYSTEM_Initialize
  2565 ;; This function uses a non-reentrant model
  2566 ;;
  2567                           
  2568                           
  2569                           ;psect for function _OSCILLATOR_Initialize
  2570  01AB                     _OSCILLATOR_Initialize:
  2571  01AB                     l1001:	
  2572                           ;incstack = 0
  2573                           ; Regs used in _OSCILLATOR_Initialize: [wreg+status,2]
  2574                           
  2575                           
  2576                           ;mcc_generated_files/mcc.c: 65:     OSCCON = 0x68;
  2577  01AB  3068               	movlw	104
  2578  01AC  0021               	movlb	1	; select bank1
  2579  01AD  0099               	movwf	25	;volatile
  2580  01AE                     l1003:
  2581                           
  2582                           ;mcc_generated_files/mcc.c: 67:     BORCON = 0x00;
  2583  01AE  0022               	movlb	2	; select bank2
  2584  01AF  0196               	clrf	22	;volatile
  2585  01B0                     l281:
  2586  01B0  0008               	return
  2587  01B1                     __end_of_OSCILLATOR_Initialize:
  2588                           
  2589                           	psect	intentry
  2590  0004                     __pintentry:	
  2591 ;; *************** function _INTERRUPT_InterruptManager *****************
  2592 ;; Defined at:
  2593 ;;		line 52 in file "mcc_generated_files/interrupt_manager.c"
  2594 ;; Parameters:    Size  Location     Type
  2595 ;;		None
  2596 ;; Auto vars:     Size  Location     Type
  2597 ;;		None
  2598 ;; Return value:  Size  Location     Type
  2599 ;;                  1    wreg      void 
  2600 ;; Registers used:
  2601 ;;		wreg, status,2, status,0, pclath, cstack
  2602 ;; Tracked objects:
  2603 ;;		On entry : 0/0
  2604 ;;		On exit  : 0/0
  2605 ;;		Unchanged: 0/0
  2606 ;; Data sizes:     COMMON   BANK0   BANK1
  2607 ;;      Params:         0       0       0
  2608 ;;      Locals:         0       0       0
  2609 ;;      Temps:          0       0       0
  2610 ;;      Totals:         0       0       0
  2611 ;;Total ram usage:        0 bytes
  2612 ;; Hardware stack levels used:    1
  2613 ;; Hardware stack levels required when called:    3
  2614 ;; This function calls:
  2615 ;;		_PIN_MANAGER_IOC
  2616 ;;		_TMR0_ISR
  2617 ;;		_TMR1_ISR
  2618 ;; This function is called by:
  2619 ;;		Interrupt level 1
  2620 ;; This function uses a non-reentrant model
  2621 ;;
  2622                           
  2623  0004                     _INTERRUPT_InterruptManager:
  2624                           
  2625                           ;incstack = 0
  2626  0004  147E               	bsf	int$flags,0	;set compiler interrupt flag (level 1)
  2627                           
  2628                           ; Regs used in _INTERRUPT_InterruptManager: [wreg+status,2+status,0+pclath+cstack]
  2629  0005  3180               	pagesel	$
  2630  0006                     i1l1271:
  2631                           
  2632                           ;mcc_generated_files/interrupt_manager.c: 55:     if(INTCONbits.TMR0IE == 1 && INTCONbit
      +                          s.TMR0IF == 1)
  2633  0006  1E8B               	btfss	11,5	;volatile
  2634  0007  2809               	goto	u33_21
  2635  0008  280A               	goto	u33_20
  2636  0009                     u33_21:
  2637  0009  2812               	goto	i1l301
  2638  000A                     u33_20:
  2639  000A                     i1l1273:
  2640  000A  1D0B               	btfss	11,2	;volatile
  2641  000B  280D               	goto	u34_21
  2642  000C  280E               	goto	u34_20
  2643  000D                     u34_21:
  2644  000D  2812               	goto	i1l301
  2645  000E                     u34_20:
  2646  000E                     i1l1275:
  2647                           
  2648                           ;mcc_generated_files/interrupt_manager.c: 56:     {;mcc_generated_files/interrupt_manage
      +                          r.c: 57:         TMR0_ISR();
  2649  000E  3181  2118  3180   	fcall	_TMR0_ISR
  2650                           
  2651                           ;mcc_generated_files/interrupt_manager.c: 58:     }
  2652  0011  2830               	goto	i1l309
  2653  0012                     i1l301:	
  2654                           ;mcc_generated_files/interrupt_manager.c: 59:     else if(INTCONbits.IOCIE == 1 && INTCO
      +                          Nbits.IOCIF == 1)
  2655                           
  2656  0012  1D8B               	btfss	11,3	;volatile
  2657  0013  2815               	goto	u35_21
  2658  0014  2816               	goto	u35_20
  2659  0015                     u35_21:
  2660  0015  281E               	goto	i1l303
  2661  0016                     u35_20:
  2662  0016                     i1l1277:
  2663  0016  1C0B               	btfss	11,0	;volatile
  2664  0017  2819               	goto	u36_21
  2665  0018  281A               	goto	u36_20
  2666  0019                     u36_21:
  2667  0019  281E               	goto	i1l303
  2668  001A                     u36_20:
  2669  001A                     i1l1279:
  2670                           
  2671                           ;mcc_generated_files/interrupt_manager.c: 60:     {;mcc_generated_files/interrupt_manage
      +                          r.c: 61:         PIN_MANAGER_IOC();
  2672  001A  3180  2083  3180   	fcall	_PIN_MANAGER_IOC
  2673                           
  2674                           ;mcc_generated_files/interrupt_manager.c: 62:     }
  2675  001D  2830               	goto	i1l309
  2676  001E                     i1l303:	
  2677                           ;mcc_generated_files/interrupt_manager.c: 63:     else if(INTCONbits.PEIE == 1)
  2678                           
  2679  001E  1F0B               	btfss	11,6	;volatile
  2680  001F  2821               	goto	u37_21
  2681  0020  2822               	goto	u37_20
  2682  0021                     u37_21:
  2683  0021  2830               	goto	i1l304
  2684  0022                     u37_20:
  2685  0022                     i1l1281:
  2686                           
  2687                           ;mcc_generated_files/interrupt_manager.c: 64:     {;mcc_generated_files/interrupt_manage
      +                          r.c: 65:         if(PIE1bits.TMR1IE == 1 && PIR1bits.TMR1IF == 1)
  2688  0022  0021               	movlb	1	; select bank1
  2689  0023  1C11               	btfss	17,0	;volatile
  2690  0024  2826               	goto	u38_21
  2691  0025  2827               	goto	u38_20
  2692  0026                     u38_21:
  2693  0026  2830               	goto	i1l304
  2694  0027                     u38_20:
  2695  0027                     i1l1283:
  2696  0027  0020               	movlb	0	; select bank0
  2697  0028  1C11               	btfss	17,0	;volatile
  2698  0029  282B               	goto	u39_21
  2699  002A  282C               	goto	u39_20
  2700  002B                     u39_21:
  2701  002B  2830               	goto	i1l304
  2702  002C                     u39_20:
  2703  002C                     i1l1285:
  2704                           
  2705                           ;mcc_generated_files/interrupt_manager.c: 66:         {;mcc_generated_files/interrupt_ma
      +                          nager.c: 67:             TMR1_ISR();
  2706  002C  3180  20F1  3180   	fcall	_TMR1_ISR
  2707                           
  2708                           ;mcc_generated_files/interrupt_manager.c: 68:         }
  2709  002F  2830               	goto	i1l309
  2710  0030                     i1l304:
  2711  0030                     i1l309:
  2712  0030  107E               	bcf	int$flags,0	;clear compiler interrupt flag (level 1)
  2713  0031  0009               	retfie
  2714  0032                     __end_of_INTERRUPT_InterruptManager:
  2715                           
  2716                           	psect	text17
  2717  00F1                     __ptext17:	
  2718 ;; *************** function _TMR1_ISR *****************
  2719 ;; Defined at:
  2720 ;;		line 157 in file "mcc_generated_files/tmr1.c"
  2721 ;; Parameters:    Size  Location     Type
  2722 ;;		None
  2723 ;; Auto vars:     Size  Location     Type
  2724 ;;		None
  2725 ;; Return value:  Size  Location     Type
  2726 ;;                  1    wreg      void 
  2727 ;; Registers used:
  2728 ;;		wreg, status,2, status,0, pclath, cstack
  2729 ;; Tracked objects:
  2730 ;;		On entry : 0/0
  2731 ;;		On exit  : 0/0
  2732 ;;		Unchanged: 0/0
  2733 ;; Data sizes:     COMMON   BANK0   BANK1
  2734 ;;      Params:         0       0       0
  2735 ;;      Locals:         0       0       0
  2736 ;;      Temps:          0       0       0
  2737 ;;      Totals:         0       0       0
  2738 ;;Total ram usage:        0 bytes
  2739 ;; Hardware stack levels used:    1
  2740 ;; Hardware stack levels required when called:    1
  2741 ;; This function calls:
  2742 ;;		Absolute function
  2743 ;;		_TMR1_DefaultInterruptHandler
  2744 ;;		_TMR1_WriteTimer
  2745 ;; This function is called by:
  2746 ;;		_INTERRUPT_InterruptManager
  2747 ;; This function uses a non-reentrant model
  2748 ;;
  2749                           
  2750                           
  2751                           ;psect for function _TMR1_ISR
  2752  00F1                     _TMR1_ISR:
  2753  00F1                     i1l1251:	
  2754                           ;incstack = 0
  2755                           ; Regs used in _TMR1_ISR: [wreg+status,2+status,0+pclath+cstack]
  2756                           
  2757                           
  2758                           ;mcc_generated_files/tmr1.c: 161:     PIR1bits.TMR1IF = 0;
  2759  00F1  0020               	movlb	0	; select bank0
  2760  00F2  1011               	bcf	17,0	;volatile
  2761  00F3                     i1l1253:
  2762                           
  2763                           ;mcc_generated_files/tmr1.c: 162:     TMR1_WriteTimer(timer1ReloadVal);
  2764  00F3  0871               	movf	_timer1ReloadVal+1,w	;volatile
  2765  00F4  00FA               	movwf	TMR1_WriteTimer@timerVal+1
  2766  00F5  0870               	movf	_timer1ReloadVal,w	;volatile
  2767  00F6  00F9               	movwf	TMR1_WriteTimer@timerVal
  2768  00F7  3181  2107  3180   	fcall	_TMR1_WriteTimer
  2769  00FA                     i1l1255:
  2770                           
  2771                           ;mcc_generated_files/tmr1.c: 164:     if(TMR1_InterruptHandler)
  2772  00FA  0020               	movlb	0	; select bank0
  2773  00FB  0822               	movf	_TMR1_InterruptHandler,w
  2774  00FC  0423               	iorwf	_TMR1_InterruptHandler+1,w
  2775  00FD  1903               	btfsc	3,2
  2776  00FE  2900               	goto	u31_21
  2777  00FF  2901               	goto	u31_20
  2778  0100                     u31_21:
  2779  0100  2906               	goto	i1l181
  2780  0101                     u31_20:
  2781  0101                     i1l1257:
  2782                           
  2783                           ;mcc_generated_files/tmr1.c: 165:     {;mcc_generated_files/tmr1.c: 166:         TMR1_In
      +                          terruptHandler();
  2784  0101  0823               	movf	_TMR1_InterruptHandler+1,w
  2785  0102  008A               	movwf	10
  2786  0103  0822               	movf	_TMR1_InterruptHandler,w
  2787  0104  000A               	callw
  2788  0105  3180               	pagesel	$
  2789  0106                     i1l181:
  2790  0106  0008               	return
  2791  0107                     __end_of_TMR1_ISR:
  2792                           
  2793                           	psect	text18
  2794  0107                     __ptext18:	
  2795 ;; *************** function _TMR1_WriteTimer *****************
  2796 ;; Defined at:
  2797 ;;		line 120 in file "mcc_generated_files/tmr1.c"
  2798 ;; Parameters:    Size  Location     Type
  2799 ;;  timerVal        2    0[COMMON] unsigned short 
  2800 ;; Auto vars:     Size  Location     Type
  2801 ;;		None
  2802 ;; Return value:  Size  Location     Type
  2803 ;;                  1    wreg      void 
  2804 ;; Registers used:
  2805 ;;		wreg, status,2
  2806 ;; Tracked objects:
  2807 ;;		On entry : 0/0
  2808 ;;		On exit  : 0/0
  2809 ;;		Unchanged: 0/0
  2810 ;; Data sizes:     COMMON   BANK0   BANK1
  2811 ;;      Params:         2       0       0
  2812 ;;      Locals:         0       0       0
  2813 ;;      Temps:          0       0       0
  2814 ;;      Totals:         2       0       0
  2815 ;;Total ram usage:        2 bytes
  2816 ;; Hardware stack levels used:    1
  2817 ;; This function calls:
  2818 ;;		Nothing
  2819 ;; This function is called by:
  2820 ;;		_TMR1_ISR
  2821 ;;		_TMR1_Reload
  2822 ;; This function uses a non-reentrant model
  2823 ;;
  2824                           
  2825                           
  2826                           ;psect for function _TMR1_WriteTimer
  2827  0107                     _TMR1_WriteTimer:
  2828  0107                     i1l1205:	
  2829                           ;incstack = 0
  2830                           ; Regs used in _TMR1_WriteTimer: [wreg+status,2]
  2831                           
  2832                           
  2833                           ;mcc_generated_files/tmr1.c: 120: void TMR1_WriteTimer(uint16_t timerVal);mcc_generated_
      +                          files/tmr1.c: 121: {;mcc_generated_files/tmr1.c: 122:     if (T1CONbits.nT1SYNC == 1)
  2834  0107  0020               	movlb	0	; select bank0
  2835  0108  1D18               	btfss	24,2	;volatile
  2836  0109  290B               	goto	u25_21
  2837  010A  290C               	goto	u25_20
  2838  010B                     u25_21:
  2839  010B  2913               	goto	i1l1215
  2840  010C                     u25_20:
  2841  010C                     i1l1207:
  2842                           
  2843                           ;mcc_generated_files/tmr1.c: 123:     {;mcc_generated_files/tmr1.c: 125:         T1CONbi
      +                          ts.TMR1ON = 0;
  2844  010C  1018               	bcf	24,0	;volatile
  2845  010D                     i1l1209:
  2846                           
  2847                           ;mcc_generated_files/tmr1.c: 128:         TMR1H = (uint8_t)(timerVal >> 8);
  2848  010D  087A               	movf	TMR1_WriteTimer@timerVal+1,w
  2849  010E  0097               	movwf	23	;volatile
  2850  010F                     i1l1211:
  2851                           
  2852                           ;mcc_generated_files/tmr1.c: 129:         TMR1L = (uint8_t)timerVal;
  2853  010F  0879               	movf	TMR1_WriteTimer@timerVal,w
  2854  0110  0096               	movwf	22	;volatile
  2855  0111                     i1l1213:
  2856                           
  2857                           ;mcc_generated_files/tmr1.c: 132:         T1CONbits.TMR1ON =1;
  2858  0111  1418               	bsf	24,0	;volatile
  2859                           
  2860                           ;mcc_generated_files/tmr1.c: 133:     }
  2861  0112  2917               	goto	i1l168
  2862  0113                     i1l1215:
  2863                           
  2864                           ;mcc_generated_files/tmr1.c: 135:     {;mcc_generated_files/tmr1.c: 137:         TMR1H =
      +                           (uint8_t)(timerVal >> 8);
  2865  0113  087A               	movf	TMR1_WriteTimer@timerVal+1,w
  2866  0114  0097               	movwf	23	;volatile
  2867  0115                     i1l1217:
  2868                           
  2869                           ;mcc_generated_files/tmr1.c: 138:         TMR1L = (uint8_t)timerVal;
  2870  0115  0879               	movf	TMR1_WriteTimer@timerVal,w
  2871  0116  0096               	movwf	22	;volatile
  2872  0117                     i1l168:
  2873  0117  0008               	return
  2874  0118                     __end_of_TMR1_WriteTimer:
  2875                           
  2876                           	psect	text19
  2877  01BA                     __ptext19:	
  2878 ;; *************** function _TMR1_DefaultInterruptHandler *****************
  2879 ;; Defined at:
  2880 ;;		line 175 in file "mcc_generated_files/tmr1.c"
  2881 ;; Parameters:    Size  Location     Type
  2882 ;;		None
  2883 ;; Auto vars:     Size  Location     Type
  2884 ;;		None
  2885 ;; Return value:  Size  Location     Type
  2886 ;;                  1    wreg      void 
  2887 ;; Registers used:
  2888 ;;		None
  2889 ;; Tracked objects:
  2890 ;;		On entry : 0/0
  2891 ;;		On exit  : 0/0
  2892 ;;		Unchanged: 0/0
  2893 ;; Data sizes:     COMMON   BANK0   BANK1
  2894 ;;      Params:         0       0       0
  2895 ;;      Locals:         0       0       0
  2896 ;;      Temps:          0       0       0
  2897 ;;      Totals:         0       0       0
  2898 ;;Total ram usage:        0 bytes
  2899 ;; Hardware stack levels used:    1
  2900 ;; This function calls:
  2901 ;;		Nothing
  2902 ;; This function is called by:
  2903 ;;		_TMR1_Initialize
  2904 ;;		_TMR1_ISR
  2905 ;; This function uses a non-reentrant model
  2906 ;;
  2907                           
  2908                           
  2909                           ;psect for function _TMR1_DefaultInterruptHandler
  2910  01BA                     _TMR1_DefaultInterruptHandler:
  2911  01BA                     i1l187:	
  2912                           ;incstack = 0
  2913                           ; Regs used in _TMR1_DefaultInterruptHandler: []
  2914                           
  2915  01BA  0008               	return
  2916  01BB                     __end_of_TMR1_DefaultInterruptHandler:
  2917                           
  2918                           	psect	text20
  2919  0118                     __ptext20:	
  2920 ;; *************** function _TMR0_ISR *****************
  2921 ;; Defined at:
  2922 ;;		line 108 in file "mcc_generated_files/tmr0.c"
  2923 ;; Parameters:    Size  Location     Type
  2924 ;;		None
  2925 ;; Auto vars:     Size  Location     Type
  2926 ;;		None
  2927 ;; Return value:  Size  Location     Type
  2928 ;;                  1    wreg      void 
  2929 ;; Registers used:
  2930 ;;		wreg, status,2, status,0, pclath, cstack
  2931 ;; Tracked objects:
  2932 ;;		On entry : 0/0
  2933 ;;		On exit  : 0/0
  2934 ;;		Unchanged: 0/0
  2935 ;; Data sizes:     COMMON   BANK0   BANK1
  2936 ;;      Params:         0       0       0
  2937 ;;      Locals:         0       0       0
  2938 ;;      Temps:          0       0       0
  2939 ;;      Totals:         0       0       0
  2940 ;;Total ram usage:        0 bytes
  2941 ;; Hardware stack levels used:    1
  2942 ;; Hardware stack levels required when called:    1
  2943 ;; This function calls:
  2944 ;;		Absolute function
  2945 ;;		_TMR0_DefaultInterruptHandler
  2946 ;; This function is called by:
  2947 ;;		_INTERRUPT_InterruptManager
  2948 ;; This function uses a non-reentrant model
  2949 ;;
  2950                           
  2951                           
  2952                           ;psect for function _TMR0_ISR
  2953  0118                     _TMR0_ISR:
  2954  0118                     i1l1259:	
  2955                           ;incstack = 0
  2956                           ; Regs used in _TMR0_ISR: [wreg+status,2+status,0+pclath+cstack]
  2957                           
  2958                           
  2959                           ;mcc_generated_files/tmr0.c: 112:     INTCONbits.TMR0IF = 0;
  2960  0118  110B               	bcf	11,2	;volatile
  2961  0119                     i1l1261:
  2962                           
  2963                           ;mcc_generated_files/tmr0.c: 114:     TMR0 = timer0ReloadVal;
  2964  0119  0878               	movf	_timer0ReloadVal,w	;volatile
  2965  011A  0020               	movlb	0	; select bank0
  2966  011B  0095               	movwf	21	;volatile
  2967  011C                     i1l1263:
  2968                           
  2969                           ;mcc_generated_files/tmr0.c: 116:     if(TMR0_InterruptHandler)
  2970  011C  0820               	movf	_TMR0_InterruptHandler,w
  2971  011D  0421               	iorwf	_TMR0_InterruptHandler+1,w
  2972  011E  1903               	btfsc	3,2
  2973  011F  2921               	goto	u32_21
  2974  0120  2922               	goto	u32_20
  2975  0121                     u32_21:
  2976  0121  2927               	goto	i1l249
  2977  0122                     u32_20:
  2978  0122                     i1l1265:
  2979                           
  2980                           ;mcc_generated_files/tmr0.c: 117:     {;mcc_generated_files/tmr0.c: 118:         TMR0_In
      +                          terruptHandler();
  2981  0122  0821               	movf	_TMR0_InterruptHandler+1,w
  2982  0123  008A               	movwf	10
  2983  0124  0820               	movf	_TMR0_InterruptHandler,w
  2984  0125  000A               	callw
  2985  0126  3181               	pagesel	$
  2986  0127                     i1l249:
  2987  0127  0008               	return
  2988  0128                     __end_of_TMR0_ISR:
  2989                           
  2990                           	psect	text21
  2991  01BB                     __ptext21:	
  2992 ;; *************** function _TMR0_DefaultInterruptHandler *****************
  2993 ;; Defined at:
  2994 ;;		line 129 in file "mcc_generated_files/tmr0.c"
  2995 ;; Parameters:    Size  Location     Type
  2996 ;;		None
  2997 ;; Auto vars:     Size  Location     Type
  2998 ;;		None
  2999 ;; Return value:  Size  Location     Type
  3000 ;;                  1    wreg      void 
  3001 ;; Registers used:
  3002 ;;		None
  3003 ;; Tracked objects:
  3004 ;;		On entry : 0/0
  3005 ;;		On exit  : 0/0
  3006 ;;		Unchanged: 0/0
  3007 ;; Data sizes:     COMMON   BANK0   BANK1
  3008 ;;      Params:         0       0       0
  3009 ;;      Locals:         0       0       0
  3010 ;;      Temps:          0       0       0
  3011 ;;      Totals:         0       0       0
  3012 ;;Total ram usage:        0 bytes
  3013 ;; Hardware stack levels used:    1
  3014 ;; This function calls:
  3015 ;;		Nothing
  3016 ;; This function is called by:
  3017 ;;		_TMR0_Initialize
  3018 ;;		_TMR0_ISR
  3019 ;; This function uses a non-reentrant model
  3020 ;;
  3021                           
  3022                           
  3023                           ;psect for function _TMR0_DefaultInterruptHandler
  3024  01BB                     _TMR0_DefaultInterruptHandler:
  3025  01BB                     i1l255:	
  3026                           ;incstack = 0
  3027                           ; Regs used in _TMR0_DefaultInterruptHandler: []
  3028                           
  3029  01BB  0008               	return
  3030  01BC                     __end_of_TMR0_DefaultInterruptHandler:
  3031                           
  3032                           	psect	text22
  3033  0083                     __ptext22:	
  3034 ;; *************** function _PIN_MANAGER_IOC *****************
  3035 ;; Defined at:
  3036 ;;		line 141 in file "mcc_generated_files/pin_manager.c"
  3037 ;; Parameters:    Size  Location     Type
  3038 ;;		None
  3039 ;; Auto vars:     Size  Location     Type
  3040 ;;		None
  3041 ;; Return value:  Size  Location     Type
  3042 ;;                  1    wreg      void 
  3043 ;; Registers used:
  3044 ;;		wreg, status,2, status,0, pclath, cstack
  3045 ;; Tracked objects:
  3046 ;;		On entry : 0/0
  3047 ;;		On exit  : 0/0
  3048 ;;		Unchanged: 0/0
  3049 ;; Data sizes:     COMMON   BANK0   BANK1
  3050 ;;      Params:         0       0       0
  3051 ;;      Locals:         0       0       0
  3052 ;;      Temps:          0       0       0
  3053 ;;      Totals:         0       0       0
  3054 ;;Total ram usage:        0 bytes
  3055 ;; Hardware stack levels used:    1
  3056 ;; Hardware stack levels required when called:    2
  3057 ;; This function calls:
  3058 ;;		_IOCAF0_ISR
  3059 ;;		_IOCAF1_ISR
  3060 ;;		_IOCAF3_ISR
  3061 ;;		_IOCAF4_ISR
  3062 ;;		_IOCAF5_ISR
  3063 ;; This function is called by:
  3064 ;;		_INTERRUPT_InterruptManager
  3065 ;; This function uses a non-reentrant model
  3066 ;;
  3067                           
  3068                           
  3069                           ;psect for function _PIN_MANAGER_IOC
  3070  0083                     _PIN_MANAGER_IOC:
  3071  0083                     i1l1231:	
  3072                           ;incstack = 0
  3073                           ; Regs used in _PIN_MANAGER_IOC: [wreg+status,2+status,0+pclath+cstack]
  3074                           
  3075                           
  3076                           ;mcc_generated_files/pin_manager.c: 144:     if(IOCAFbits.IOCAF0 == 1)
  3077  0083  0027               	movlb	7	; select bank7
  3078  0084  1C13               	btfss	19,0	;volatile
  3079  0085  2887               	goto	u26_21
  3080  0086  2888               	goto	u26_20
  3081  0087                     u26_21:
  3082  0087  288B               	goto	i1l1235
  3083  0088                     u26_20:
  3084  0088                     i1l1233:
  3085                           
  3086                           ;mcc_generated_files/pin_manager.c: 145:     {;mcc_generated_files/pin_manager.c: 146:  
      +                                 IOCAF0_ISR();
  3087  0088  3181  2162  3180   	fcall	_IOCAF0_ISR
  3088  008B                     i1l1235:
  3089                           
  3090                           ;mcc_generated_files/pin_manager.c: 149:     if(IOCAFbits.IOCAF1 == 1)
  3091  008B  0027               	movlb	7	; select bank7
  3092  008C  1C93               	btfss	19,1	;volatile
  3093  008D  288F               	goto	u27_21
  3094  008E  2890               	goto	u27_20
  3095  008F                     u27_21:
  3096  008F  2893               	goto	i1l1239
  3097  0090                     u27_20:
  3098  0090                     i1l1237:
  3099                           
  3100                           ;mcc_generated_files/pin_manager.c: 150:     {;mcc_generated_files/pin_manager.c: 151:  
      +                                 IOCAF1_ISR();
  3101  0090  3181  2154  3180   	fcall	_IOCAF1_ISR
  3102  0093                     i1l1239:
  3103                           
  3104                           ;mcc_generated_files/pin_manager.c: 154:     if(IOCAFbits.IOCAF3 == 1)
  3105  0093  0027               	movlb	7	; select bank7
  3106  0094  1D93               	btfss	19,3	;volatile
  3107  0095  2897               	goto	u28_21
  3108  0096  2898               	goto	u28_20
  3109  0097                     u28_21:
  3110  0097  289B               	goto	i1l1243
  3111  0098                     u28_20:
  3112  0098                     i1l1241:
  3113                           
  3114                           ;mcc_generated_files/pin_manager.c: 155:     {;mcc_generated_files/pin_manager.c: 156:  
      +                                 IOCAF3_ISR();
  3115  0098  3181  2146  3180   	fcall	_IOCAF3_ISR
  3116  009B                     i1l1243:
  3117                           
  3118                           ;mcc_generated_files/pin_manager.c: 159:     if(IOCAFbits.IOCAF4 == 1)
  3119  009B  0027               	movlb	7	; select bank7
  3120  009C  1E13               	btfss	19,4	;volatile
  3121  009D  289F               	goto	u29_21
  3122  009E  28A0               	goto	u29_20
  3123  009F                     u29_21:
  3124  009F  28A3               	goto	i1l1247
  3125  00A0                     u29_20:
  3126  00A0                     i1l1245:
  3127                           
  3128                           ;mcc_generated_files/pin_manager.c: 160:     {;mcc_generated_files/pin_manager.c: 161:  
      +                                 IOCAF4_ISR();
  3129  00A0  3181  2137  3180   	fcall	_IOCAF4_ISR
  3130  00A3                     i1l1247:
  3131                           
  3132                           ;mcc_generated_files/pin_manager.c: 164:     if(IOCAFbits.IOCAF5 == 1)
  3133  00A3  0027               	movlb	7	; select bank7
  3134  00A4  1E93               	btfss	19,5	;volatile
  3135  00A5  28A7               	goto	u30_21
  3136  00A6  28A8               	goto	u30_20
  3137  00A7                     u30_21:
  3138  00A7  28AB               	goto	i1l77
  3139  00A8                     u30_20:
  3140  00A8                     i1l1249:
  3141                           
  3142                           ;mcc_generated_files/pin_manager.c: 165:     {;mcc_generated_files/pin_manager.c: 166:  
      +                                 IOCAF5_ISR();
  3143  00A8  3181  2128  3180   	fcall	_IOCAF5_ISR
  3144  00AB                     i1l77:
  3145  00AB  0008               	return
  3146  00AC                     __end_of_PIN_MANAGER_IOC:
  3147                           
  3148                           	psect	text23
  3149  0128                     __ptext23:	
  3150 ;; *************** function _IOCAF5_ISR *****************
  3151 ;; Defined at:
  3152 ;;		line 293 in file "mcc_generated_files/pin_manager.c"
  3153 ;; Parameters:    Size  Location     Type
  3154 ;;		None
  3155 ;; Auto vars:     Size  Location     Type
  3156 ;;		None
  3157 ;; Return value:  Size  Location     Type
  3158 ;;                  1    wreg      void 
  3159 ;; Registers used:
  3160 ;;		wreg, status,2, status,0, pclath, cstack
  3161 ;; Tracked objects:
  3162 ;;		On entry : 0/0
  3163 ;;		On exit  : 0/0
  3164 ;;		Unchanged: 0/0
  3165 ;; Data sizes:     COMMON   BANK0   BANK1
  3166 ;;      Params:         0       0       0
  3167 ;;      Locals:         0       0       0
  3168 ;;      Temps:          0       0       0
  3169 ;;      Totals:         0       0       0
  3170 ;;Total ram usage:        0 bytes
  3171 ;; Hardware stack levels used:    1
  3172 ;; Hardware stack levels required when called:    1
  3173 ;; This function calls:
  3174 ;;		Absolute function
  3175 ;;		_IOCAF5_DefaultInterruptHandler
  3176 ;; This function is called by:
  3177 ;;		_PIN_MANAGER_IOC
  3178 ;; This function uses a non-reentrant model
  3179 ;;
  3180                           
  3181                           
  3182                           ;psect for function _IOCAF5_ISR
  3183  0128                     _IOCAF5_ISR:
  3184  0128                     i1l1183:	
  3185                           ;incstack = 0
  3186                           ; Regs used in _IOCAF5_ISR: [wreg+status,2+status,0+pclath+cstack]
  3187                           
  3188                           
  3189                           ;mcc_generated_files/pin_manager.c: 298:     if(IOCAF5_InterruptHandler)
  3190  0128  0020               	movlb	0	; select bank0
  3191  0129  0824               	movf	_IOCAF5_InterruptHandler,w
  3192  012A  0425               	iorwf	_IOCAF5_InterruptHandler+1,w
  3193  012B  1903               	btfsc	3,2
  3194  012C  292E               	goto	u24_21
  3195  012D  292F               	goto	u24_20
  3196  012E                     u24_21:
  3197  012E  2934               	goto	i1l1187
  3198  012F                     u24_20:
  3199  012F                     i1l1185:
  3200                           
  3201                           ;mcc_generated_files/pin_manager.c: 299:     {;mcc_generated_files/pin_manager.c: 300:  
      +                                 IOCAF5_InterruptHandler();
  3202  012F  0825               	movf	_IOCAF5_InterruptHandler+1,w
  3203  0130  008A               	movwf	10
  3204  0131  0824               	movf	_IOCAF5_InterruptHandler,w
  3205  0132  000A               	callw
  3206  0133  3181               	pagesel	$
  3207  0134                     i1l1187:
  3208                           
  3209                           ;mcc_generated_files/pin_manager.c: 302:     IOCAFbits.IOCAF5 = 0;
  3210  0134  0027               	movlb	7	; select bank7
  3211  0135  1293               	bcf	19,5	;volatile
  3212  0136                     i1l121:
  3213  0136  0008               	return
  3214  0137                     __end_of_IOCAF5_ISR:
  3215                           
  3216                           	psect	text24
  3217  01BC                     __ptext24:	
  3218 ;; *************** function _IOCAF5_DefaultInterruptHandler *****************
  3219 ;; Defined at:
  3220 ;;		line 315 in file "mcc_generated_files/pin_manager.c"
  3221 ;; Parameters:    Size  Location     Type
  3222 ;;		None
  3223 ;; Auto vars:     Size  Location     Type
  3224 ;;		None
  3225 ;; Return value:  Size  Location     Type
  3226 ;;                  1    wreg      void 
  3227 ;; Registers used:
  3228 ;;		None
  3229 ;; Tracked objects:
  3230 ;;		On entry : 0/0
  3231 ;;		On exit  : 0/0
  3232 ;;		Unchanged: 0/0
  3233 ;; Data sizes:     COMMON   BANK0   BANK1
  3234 ;;      Params:         0       0       0
  3235 ;;      Locals:         0       0       0
  3236 ;;      Temps:          0       0       0
  3237 ;;      Totals:         0       0       0
  3238 ;;Total ram usage:        0 bytes
  3239 ;; Hardware stack levels used:    1
  3240 ;; This function calls:
  3241 ;;		Nothing
  3242 ;; This function is called by:
  3243 ;;		_PIN_MANAGER_Initialize
  3244 ;;		_IOCAF5_ISR
  3245 ;; This function uses a non-reentrant model
  3246 ;;
  3247                           
  3248                           
  3249                           ;psect for function _IOCAF5_DefaultInterruptHandler
  3250  01BC                     _IOCAF5_DefaultInterruptHandler:
  3251  01BC                     i1l127:	
  3252                           ;incstack = 0
  3253                           ; Regs used in _IOCAF5_DefaultInterruptHandler: []
  3254                           
  3255  01BC  0008               	return
  3256  01BD                     __end_of_IOCAF5_DefaultInterruptHandler:
  3257                           
  3258                           	psect	text25
  3259  0137                     __ptext25:	
  3260 ;; *************** function _IOCAF4_ISR *****************
  3261 ;; Defined at:
  3262 ;;		line 263 in file "mcc_generated_files/pin_manager.c"
  3263 ;; Parameters:    Size  Location     Type
  3264 ;;		None
  3265 ;; Auto vars:     Size  Location     Type
  3266 ;;		None
  3267 ;; Return value:  Size  Location     Type
  3268 ;;                  1    wreg      void 
  3269 ;; Registers used:
  3270 ;;		wreg, status,2, status,0, pclath, cstack
  3271 ;; Tracked objects:
  3272 ;;		On entry : 0/0
  3273 ;;		On exit  : 0/0
  3274 ;;		Unchanged: 0/0
  3275 ;; Data sizes:     COMMON   BANK0   BANK1
  3276 ;;      Params:         0       0       0
  3277 ;;      Locals:         0       0       0
  3278 ;;      Temps:          0       0       0
  3279 ;;      Totals:         0       0       0
  3280 ;;Total ram usage:        0 bytes
  3281 ;; Hardware stack levels used:    1
  3282 ;; Hardware stack levels required when called:    1
  3283 ;; This function calls:
  3284 ;;		Absolute function
  3285 ;;		_IOCAF4_DefaultInterruptHandler
  3286 ;; This function is called by:
  3287 ;;		_PIN_MANAGER_IOC
  3288 ;; This function uses a non-reentrant model
  3289 ;;
  3290                           
  3291                           
  3292                           ;psect for function _IOCAF4_ISR
  3293  0137                     _IOCAF4_ISR:
  3294  0137                     i1l1177:	
  3295                           ;incstack = 0
  3296                           ; Regs used in _IOCAF4_ISR: [wreg+status,2+status,0+pclath+cstack]
  3297                           
  3298                           
  3299                           ;mcc_generated_files/pin_manager.c: 268:     if(IOCAF4_InterruptHandler)
  3300  0137  0020               	movlb	0	; select bank0
  3301  0138  0826               	movf	_IOCAF4_InterruptHandler,w
  3302  0139  0427               	iorwf	_IOCAF4_InterruptHandler+1,w
  3303  013A  1903               	btfsc	3,2
  3304  013B  293D               	goto	u23_21
  3305  013C  293E               	goto	u23_20
  3306  013D                     u23_21:
  3307  013D  2943               	goto	i1l1181
  3308  013E                     u23_20:
  3309  013E                     i1l1179:
  3310                           
  3311                           ;mcc_generated_files/pin_manager.c: 269:     {;mcc_generated_files/pin_manager.c: 270:  
      +                                 IOCAF4_InterruptHandler();
  3312  013E  0827               	movf	_IOCAF4_InterruptHandler+1,w
  3313  013F  008A               	movwf	10
  3314  0140  0826               	movf	_IOCAF4_InterruptHandler,w
  3315  0141  000A               	callw
  3316  0142  3181               	pagesel	$
  3317  0143                     i1l1181:
  3318                           
  3319                           ;mcc_generated_files/pin_manager.c: 272:     IOCAFbits.IOCAF4 = 0;
  3320  0143  0027               	movlb	7	; select bank7
  3321  0144  1213               	bcf	19,4	;volatile
  3322  0145                     i1l111:
  3323  0145  0008               	return
  3324  0146                     __end_of_IOCAF4_ISR:
  3325                           
  3326                           	psect	text26
  3327  01BD                     __ptext26:	
  3328 ;; *************** function _IOCAF4_DefaultInterruptHandler *****************
  3329 ;; Defined at:
  3330 ;;		line 285 in file "mcc_generated_files/pin_manager.c"
  3331 ;; Parameters:    Size  Location     Type
  3332 ;;		None
  3333 ;; Auto vars:     Size  Location     Type
  3334 ;;		None
  3335 ;; Return value:  Size  Location     Type
  3336 ;;                  1    wreg      void 
  3337 ;; Registers used:
  3338 ;;		None
  3339 ;; Tracked objects:
  3340 ;;		On entry : 0/0
  3341 ;;		On exit  : 0/0
  3342 ;;		Unchanged: 0/0
  3343 ;; Data sizes:     COMMON   BANK0   BANK1
  3344 ;;      Params:         0       0       0
  3345 ;;      Locals:         0       0       0
  3346 ;;      Temps:          0       0       0
  3347 ;;      Totals:         0       0       0
  3348 ;;Total ram usage:        0 bytes
  3349 ;; Hardware stack levels used:    1
  3350 ;; This function calls:
  3351 ;;		Nothing
  3352 ;; This function is called by:
  3353 ;;		_PIN_MANAGER_Initialize
  3354 ;;		_IOCAF4_ISR
  3355 ;; This function uses a non-reentrant model
  3356 ;;
  3357                           
  3358                           
  3359                           ;psect for function _IOCAF4_DefaultInterruptHandler
  3360  01BD                     _IOCAF4_DefaultInterruptHandler:
  3361  01BD                     i1l117:	
  3362                           ;incstack = 0
  3363                           ; Regs used in _IOCAF4_DefaultInterruptHandler: []
  3364                           
  3365  01BD  0008               	return
  3366  01BE                     __end_of_IOCAF4_DefaultInterruptHandler:
  3367                           
  3368                           	psect	text27
  3369  0146                     __ptext27:	
  3370 ;; *************** function _IOCAF3_ISR *****************
  3371 ;; Defined at:
  3372 ;;		line 233 in file "mcc_generated_files/pin_manager.c"
  3373 ;; Parameters:    Size  Location     Type
  3374 ;;		None
  3375 ;; Auto vars:     Size  Location     Type
  3376 ;;		None
  3377 ;; Return value:  Size  Location     Type
  3378 ;;                  1    wreg      void 
  3379 ;; Registers used:
  3380 ;;		wreg, status,2, status,0, pclath, cstack
  3381 ;; Tracked objects:
  3382 ;;		On entry : 0/0
  3383 ;;		On exit  : 0/0
  3384 ;;		Unchanged: 0/0
  3385 ;; Data sizes:     COMMON   BANK0   BANK1
  3386 ;;      Params:         0       0       0
  3387 ;;      Locals:         0       0       0
  3388 ;;      Temps:          0       0       0
  3389 ;;      Totals:         0       0       0
  3390 ;;Total ram usage:        0 bytes
  3391 ;; Hardware stack levels used:    1
  3392 ;; Hardware stack levels required when called:    1
  3393 ;; This function calls:
  3394 ;;		Absolute function
  3395 ;;		_IOCAF3_DefaultInterruptHandler
  3396 ;; This function is called by:
  3397 ;;		_PIN_MANAGER_IOC
  3398 ;; This function uses a non-reentrant model
  3399 ;;
  3400                           
  3401                           
  3402                           ;psect for function _IOCAF3_ISR
  3403  0146                     _IOCAF3_ISR:
  3404  0146                     i1l937:	
  3405                           ;incstack = 0
  3406                           ; Regs used in _IOCAF3_ISR: [wreg+status,2+status,0+pclath+cstack]
  3407                           
  3408                           
  3409                           ;mcc_generated_files/pin_manager.c: 238:     if(IOCAF3_InterruptHandler)
  3410  0146  0872               	movf	_IOCAF3_InterruptHandler,w
  3411  0147  0473               	iorwf	_IOCAF3_InterruptHandler+1,w
  3412  0148  1903               	btfsc	3,2
  3413  0149  294B               	goto	u3_21
  3414  014A  294C               	goto	u3_20
  3415  014B                     u3_21:
  3416  014B  2951               	goto	i1l941
  3417  014C                     u3_20:
  3418  014C                     i1l939:
  3419                           
  3420                           ;mcc_generated_files/pin_manager.c: 239:     {;mcc_generated_files/pin_manager.c: 240:  
      +                                 IOCAF3_InterruptHandler();
  3421  014C  0873               	movf	_IOCAF3_InterruptHandler+1,w
  3422  014D  008A               	movwf	10
  3423  014E  0872               	movf	_IOCAF3_InterruptHandler,w
  3424  014F  000A               	callw
  3425  0150  3181               	pagesel	$
  3426  0151                     i1l941:
  3427                           
  3428                           ;mcc_generated_files/pin_manager.c: 242:     IOCAFbits.IOCAF3 = 0;
  3429  0151  0027               	movlb	7	; select bank7
  3430  0152  1193               	bcf	19,3	;volatile
  3431  0153                     i1l101:
  3432  0153  0008               	return
  3433  0154                     __end_of_IOCAF3_ISR:
  3434                           
  3435                           	psect	text28
  3436  01BE                     __ptext28:	
  3437 ;; *************** function _IOCAF3_DefaultInterruptHandler *****************
  3438 ;; Defined at:
  3439 ;;		line 255 in file "mcc_generated_files/pin_manager.c"
  3440 ;; Parameters:    Size  Location     Type
  3441 ;;		None
  3442 ;; Auto vars:     Size  Location     Type
  3443 ;;		None
  3444 ;; Return value:  Size  Location     Type
  3445 ;;                  1    wreg      void 
  3446 ;; Registers used:
  3447 ;;		None
  3448 ;; Tracked objects:
  3449 ;;		On entry : 0/0
  3450 ;;		On exit  : 0/0
  3451 ;;		Unchanged: 0/0
  3452 ;; Data sizes:     COMMON   BANK0   BANK1
  3453 ;;      Params:         0       0       0
  3454 ;;      Locals:         0       0       0
  3455 ;;      Temps:          0       0       0
  3456 ;;      Totals:         0       0       0
  3457 ;;Total ram usage:        0 bytes
  3458 ;; Hardware stack levels used:    1
  3459 ;; This function calls:
  3460 ;;		Nothing
  3461 ;; This function is called by:
  3462 ;;		_PIN_MANAGER_Initialize
  3463 ;;		_IOCAF3_ISR
  3464 ;; This function uses a non-reentrant model
  3465 ;;
  3466                           
  3467                           
  3468                           ;psect for function _IOCAF3_DefaultInterruptHandler
  3469  01BE                     _IOCAF3_DefaultInterruptHandler:
  3470  01BE                     i1l107:	
  3471                           ;incstack = 0
  3472                           ; Regs used in _IOCAF3_DefaultInterruptHandler: []
  3473                           
  3474  01BE  0008               	return
  3475  01BF                     __end_of_IOCAF3_DefaultInterruptHandler:
  3476                           
  3477                           	psect	text29
  3478  0154                     __ptext29:	
  3479 ;; *************** function _IOCAF1_ISR *****************
  3480 ;; Defined at:
  3481 ;;		line 203 in file "mcc_generated_files/pin_manager.c"
  3482 ;; Parameters:    Size  Location     Type
  3483 ;;		None
  3484 ;; Auto vars:     Size  Location     Type
  3485 ;;		None
  3486 ;; Return value:  Size  Location     Type
  3487 ;;                  1    wreg      void 
  3488 ;; Registers used:
  3489 ;;		wreg, status,2, status,0, pclath, cstack
  3490 ;; Tracked objects:
  3491 ;;		On entry : 0/0
  3492 ;;		On exit  : 0/0
  3493 ;;		Unchanged: 0/0
  3494 ;; Data sizes:     COMMON   BANK0   BANK1
  3495 ;;      Params:         0       0       0
  3496 ;;      Locals:         0       0       0
  3497 ;;      Temps:          0       0       0
  3498 ;;      Totals:         0       0       0
  3499 ;;Total ram usage:        0 bytes
  3500 ;; Hardware stack levels used:    1
  3501 ;; Hardware stack levels required when called:    1
  3502 ;; This function calls:
  3503 ;;		Absolute function
  3504 ;;		_IOCAF1_DefaultInterruptHandler
  3505 ;; This function is called by:
  3506 ;;		_PIN_MANAGER_IOC
  3507 ;; This function uses a non-reentrant model
  3508 ;;
  3509                           
  3510                           
  3511                           ;psect for function _IOCAF1_ISR
  3512  0154                     _IOCAF1_ISR:
  3513  0154                     i1l931:	
  3514                           ;incstack = 0
  3515                           ; Regs used in _IOCAF1_ISR: [wreg+status,2+status,0+pclath+cstack]
  3516                           
  3517                           
  3518                           ;mcc_generated_files/pin_manager.c: 208:     if(IOCAF1_InterruptHandler)
  3519  0154  0874               	movf	_IOCAF1_InterruptHandler,w
  3520  0155  0475               	iorwf	_IOCAF1_InterruptHandler+1,w
  3521  0156  1903               	btfsc	3,2
  3522  0157  2959               	goto	u2_21
  3523  0158  295A               	goto	u2_20
  3524  0159                     u2_21:
  3525  0159  295F               	goto	i1l935
  3526  015A                     u2_20:
  3527  015A                     i1l933:
  3528                           
  3529                           ;mcc_generated_files/pin_manager.c: 209:     {;mcc_generated_files/pin_manager.c: 210:  
      +                                 IOCAF1_InterruptHandler();
  3530  015A  0875               	movf	_IOCAF1_InterruptHandler+1,w
  3531  015B  008A               	movwf	10
  3532  015C  0874               	movf	_IOCAF1_InterruptHandler,w
  3533  015D  000A               	callw
  3534  015E  3181               	pagesel	$
  3535  015F                     i1l935:
  3536                           
  3537                           ;mcc_generated_files/pin_manager.c: 212:     IOCAFbits.IOCAF1 = 0;
  3538  015F  0027               	movlb	7	; select bank7
  3539  0160  1093               	bcf	19,1	;volatile
  3540  0161                     i1l91:
  3541  0161  0008               	return
  3542  0162                     __end_of_IOCAF1_ISR:
  3543                           
  3544                           	psect	text30
  3545  01BF                     __ptext30:	
  3546 ;; *************** function _IOCAF1_DefaultInterruptHandler *****************
  3547 ;; Defined at:
  3548 ;;		line 225 in file "mcc_generated_files/pin_manager.c"
  3549 ;; Parameters:    Size  Location     Type
  3550 ;;		None
  3551 ;; Auto vars:     Size  Location     Type
  3552 ;;		None
  3553 ;; Return value:  Size  Location     Type
  3554 ;;                  1    wreg      void 
  3555 ;; Registers used:
  3556 ;;		None
  3557 ;; Tracked objects:
  3558 ;;		On entry : 0/0
  3559 ;;		On exit  : 0/0
  3560 ;;		Unchanged: 0/0
  3561 ;; Data sizes:     COMMON   BANK0   BANK1
  3562 ;;      Params:         0       0       0
  3563 ;;      Locals:         0       0       0
  3564 ;;      Temps:          0       0       0
  3565 ;;      Totals:         0       0       0
  3566 ;;Total ram usage:        0 bytes
  3567 ;; Hardware stack levels used:    1
  3568 ;; This function calls:
  3569 ;;		Nothing
  3570 ;; This function is called by:
  3571 ;;		_PIN_MANAGER_Initialize
  3572 ;;		_IOCAF1_ISR
  3573 ;; This function uses a non-reentrant model
  3574 ;;
  3575                           
  3576                           
  3577                           ;psect for function _IOCAF1_DefaultInterruptHandler
  3578  01BF                     _IOCAF1_DefaultInterruptHandler:
  3579  01BF                     i1l97:	
  3580                           ;incstack = 0
  3581                           ; Regs used in _IOCAF1_DefaultInterruptHandler: []
  3582                           
  3583  01BF  0008               	return
  3584  01C0                     __end_of_IOCAF1_DefaultInterruptHandler:
  3585                           
  3586                           	psect	text31
  3587  0162                     __ptext31:	
  3588 ;; *************** function _IOCAF0_ISR *****************
  3589 ;; Defined at:
  3590 ;;		line 173 in file "mcc_generated_files/pin_manager.c"
  3591 ;; Parameters:    Size  Location     Type
  3592 ;;		None
  3593 ;; Auto vars:     Size  Location     Type
  3594 ;;		None
  3595 ;; Return value:  Size  Location     Type
  3596 ;;                  1    wreg      void 
  3597 ;; Registers used:
  3598 ;;		wreg, status,2, status,0, pclath, cstack
  3599 ;; Tracked objects:
  3600 ;;		On entry : 0/0
  3601 ;;		On exit  : 0/0
  3602 ;;		Unchanged: 0/0
  3603 ;; Data sizes:     COMMON   BANK0   BANK1
  3604 ;;      Params:         0       0       0
  3605 ;;      Locals:         0       0       0
  3606 ;;      Temps:          0       0       0
  3607 ;;      Totals:         0       0       0
  3608 ;;Total ram usage:        0 bytes
  3609 ;; Hardware stack levels used:    1
  3610 ;; Hardware stack levels required when called:    1
  3611 ;; This function calls:
  3612 ;;		Absolute function
  3613 ;;		_IOCAF0_DefaultInterruptHandler
  3614 ;; This function is called by:
  3615 ;;		_PIN_MANAGER_IOC
  3616 ;; This function uses a non-reentrant model
  3617 ;;
  3618                           
  3619                           
  3620                           ;psect for function _IOCAF0_ISR
  3621  0162                     _IOCAF0_ISR:
  3622  0162                     i1l925:	
  3623                           ;incstack = 0
  3624                           ; Regs used in _IOCAF0_ISR: [wreg+status,2+status,0+pclath+cstack]
  3625                           
  3626                           
  3627                           ;mcc_generated_files/pin_manager.c: 178:     if(IOCAF0_InterruptHandler)
  3628  0162  0876               	movf	_IOCAF0_InterruptHandler,w
  3629  0163  0477               	iorwf	_IOCAF0_InterruptHandler+1,w
  3630  0164  1903               	btfsc	3,2
  3631  0165  2967               	goto	u1_21
  3632  0166  2968               	goto	u1_20
  3633  0167                     u1_21:
  3634  0167  296D               	goto	i1l929
  3635  0168                     u1_20:
  3636  0168                     i1l927:
  3637                           
  3638                           ;mcc_generated_files/pin_manager.c: 179:     {;mcc_generated_files/pin_manager.c: 180:  
      +                                 IOCAF0_InterruptHandler();
  3639  0168  0877               	movf	_IOCAF0_InterruptHandler+1,w
  3640  0169  008A               	movwf	10
  3641  016A  0876               	movf	_IOCAF0_InterruptHandler,w
  3642  016B  000A               	callw
  3643  016C  3181               	pagesel	$
  3644  016D                     i1l929:
  3645                           
  3646                           ;mcc_generated_files/pin_manager.c: 182:     IOCAFbits.IOCAF0 = 0;
  3647  016D  0027               	movlb	7	; select bank7
  3648  016E  1013               	bcf	19,0	;volatile
  3649  016F                     i1l81:
  3650  016F  0008               	return
  3651  0170                     __end_of_IOCAF0_ISR:
  3652                           
  3653                           	psect	text32
  3654  01C0                     __ptext32:	
  3655 ;; *************** function _IOCAF0_DefaultInterruptHandler *****************
  3656 ;; Defined at:
  3657 ;;		line 195 in file "mcc_generated_files/pin_manager.c"
  3658 ;; Parameters:    Size  Location     Type
  3659 ;;		None
  3660 ;; Auto vars:     Size  Location     Type
  3661 ;;		None
  3662 ;; Return value:  Size  Location     Type
  3663 ;;                  1    wreg      void 
  3664 ;; Registers used:
  3665 ;;		None
  3666 ;; Tracked objects:
  3667 ;;		On entry : 0/0
  3668 ;;		On exit  : 0/0
  3669 ;;		Unchanged: 0/0
  3670 ;; Data sizes:     COMMON   BANK0   BANK1
  3671 ;;      Params:         0       0       0
  3672 ;;      Locals:         0       0       0
  3673 ;;      Temps:          0       0       0
  3674 ;;      Totals:         0       0       0
  3675 ;;Total ram usage:        0 bytes
  3676 ;; Hardware stack levels used:    1
  3677 ;; This function calls:
  3678 ;;		Nothing
  3679 ;; This function is called by:
  3680 ;;		_PIN_MANAGER_Initialize
  3681 ;;		_IOCAF0_ISR
  3682 ;; This function uses a non-reentrant model
  3683 ;;
  3684                           
  3685                           
  3686                           ;psect for function _IOCAF0_DefaultInterruptHandler
  3687  01C0                     _IOCAF0_DefaultInterruptHandler:
  3688  01C0                     i1l87:	
  3689                           ;incstack = 0
  3690                           ; Regs used in _IOCAF0_DefaultInterruptHandler: []
  3691                           
  3692  01C0  0008               	return
  3693  01C1                     __end_of_IOCAF0_DefaultInterruptHandler:
  3694  007E                     btemp	set	126	;btemp
  3695  007E                     int$flags	set	126
  3696  007E                     wtemp0	set	126
  3697                           
  3698                           	psect	config
  3699                           
  3700                           ;Config register CONFIG1 @ 0x8007
  3701                           ;	Oscillator Selection Bits
  3702                           ;	FOSC = INTOSC, INTOSC oscillator: I/O function on CLKIN pin
  3703                           ;	Watchdog Timer Enable
  3704                           ;	WDTE = OFF, WDT disabled
  3705                           ;	Power-up Timer Enable
  3706                           ;	PWRTE = OFF, PWRT disabled
  3707                           ;	MCLR Pin Function Select
  3708                           ;	MCLRE = OFF, MCLR/VPP pin function is digital input
  3709                           ;	Flash Program Memory Code Protection
  3710                           ;	CP = OFF, Program memory code protection is disabled
  3711                           ;	Brown-out Reset Enable
  3712                           ;	BOREN = OFF, Brown-out Reset disabled
  3713                           ;	Clock Out Enable
  3714                           ;	CLKOUTEN = OFF, CLKOUT function is disabled. I/O or oscillator function on the CLKOUT 
      +                          pin
  3715  8007                     	org	32775
  3716  8007  39A4               	dw	14756
  3717                           
  3718                           ;Config register CONFIG2 @ 0x8008
  3719                           ;	Flash Memory Self-Write Protection
  3720                           ;	WRT = OFF, Write protection off
  3721                           ;	Stack Overflow/Underflow Reset Enable
  3722                           ;	STVREN = ON, Stack Overflow or Underflow will cause a Reset
  3723                           ;	Brown-out Reset Voltage Selection
  3724                           ;	BORV = LO, Brown-out Reset Voltage (Vbor), low trip point selected.
  3725                           ;	Low-Power Brown Out Reset
  3726                           ;	LPBOR = OFF, Low-Power BOR is disabled
  3727                           ;	Low-Voltage Programming Enable
  3728                           ;	LVP = OFF, High-voltage on MCLR/VPP must be used for programming
  3729  8008                     	org	32776
  3730  8008  1FFF               	dw	8191

Data Sizes:
    Strings     0
    Constant    0
    Data        0
    BSS         0
    Persistent  49
    Stack       0

Auto Spaces:
    Space          Size  Autos    Used
    COMMON           14      3      12
    BANK0            80      2      10
    BANK1            32      0       0

Pointer List with Targets:

    TMR0_SetInterruptHandler@InterruptHandler	PTR FTN()void  size(2) Largest target is 1
		 -> TMR0_DefaultInterruptHandler(), 

    TMR0_InterruptHandler	PTR FTN()void  size(2) Largest target is 1
		 -> TMR0_DefaultInterruptHandler(), Absolute function(), 

    TMR1_SetInterruptHandler@InterruptHandler	PTR FTN()void  size(2) Largest target is 1
		 -> TMR1_DefaultInterruptHandler(), 

    TMR1_InterruptHandler	PTR FTN()void  size(2) Largest target is 1
		 -> TMR1_DefaultInterruptHandler(), Absolute function(), 

    IOCAF5_SetInterruptHandler@InterruptHandler	PTR FTN()void  size(2) Largest target is 1
		 -> IOCAF5_DefaultInterruptHandler(), 

    IOCAF5_InterruptHandler	PTR FTN()void  size(2) Largest target is 1
		 -> Absolute function(), IOCAF5_DefaultInterruptHandler(), 

    IOCAF4_SetInterruptHandler@InterruptHandler	PTR FTN()void  size(2) Largest target is 1
		 -> IOCAF4_DefaultInterruptHandler(), 

    IOCAF4_InterruptHandler	PTR FTN()void  size(2) Largest target is 1
		 -> Absolute function(), IOCAF4_DefaultInterruptHandler(), 

    IOCAF3_SetInterruptHandler@InterruptHandler	PTR FTN()void  size(2) Largest target is 1
		 -> IOCAF3_DefaultInterruptHandler(), 

    IOCAF3_InterruptHandler	PTR FTN()void  size(2) Largest target is 1
		 -> Absolute function(), IOCAF3_DefaultInterruptHandler(), 

    IOCAF1_SetInterruptHandler@InterruptHandler	PTR FTN()void  size(2) Largest target is 1
		 -> IOCAF1_DefaultInterruptHandler(), 

    IOCAF1_InterruptHandler	PTR FTN()void  size(2) Largest target is 1
		 -> Absolute function(), IOCAF1_DefaultInterruptHandler(), 

    IOCAF0_SetInterruptHandler@InterruptHandler	PTR FTN()void  size(2) Largest target is 1
		 -> IOCAF0_DefaultInterruptHandler(), 

    IOCAF0_InterruptHandler	PTR FTN()void  size(2) Largest target is 1
		 -> Absolute function(), IOCAF0_DefaultInterruptHandler(), 


Critical Paths under _main in COMMON

    _SYSTEM_Initialize->_TMR0_Initialize

Critical Paths under _INTERRUPT_InterruptManager in COMMON

    _TMR1_ISR->_TMR1_WriteTimer

Critical Paths under _main in BANK0

    _TMR1_Initialize->_TMR1_SetInterruptHandler
    _TMR0_Initialize->_TMR0_SetInterruptHandler
    _PIN_MANAGER_Initialize->_IOCAF0_SetInterruptHandler
    _PIN_MANAGER_Initialize->_IOCAF1_SetInterruptHandler
    _PIN_MANAGER_Initialize->_IOCAF3_SetInterruptHandler
    _PIN_MANAGER_Initialize->_IOCAF4_SetInterruptHandler
    _PIN_MANAGER_Initialize->_IOCAF5_SetInterruptHandler

Critical Paths under _INTERRUPT_InterruptManager in BANK0

    None.

Critical Paths under _main in BANK1

    None.

Critical Paths under _INTERRUPT_InterruptManager in BANK1

    None.

Call Graph Tables:

 ---------------------------------------------------------------------------------
 (Depth) Function   	        Calls       Base Space   Used Autos Params    Refs
 ---------------------------------------------------------------------------------
 (0) _main                                                 0     0      0     847
                  _SYSTEM_Initialize
 ---------------------------------------------------------------------------------
 (1) _SYSTEM_Initialize                                    0     0      0     847
              _OSCILLATOR_Initialize
             _PIN_MANAGER_Initialize
                    _PWM2_Initialize
                    _TMR0_Initialize
                    _TMR1_Initialize
                    _TMR2_Initialize
                     _WDT_Initialize
 ---------------------------------------------------------------------------------
 (2) _WDT_Initialize                                       0     0      0       0
 ---------------------------------------------------------------------------------
 (2) _TMR2_Initialize                                      0     0      0       0
 ---------------------------------------------------------------------------------
 (2) _TMR1_Initialize                                      0     0      0     121
           _TMR1_SetInterruptHandler
 ---------------------------------------------------------------------------------
 (3) _TMR1_SetInterruptHandler                             2     0      2     121
                                              0 BANK0      2     0      2
 ---------------------------------------------------------------------------------
 (2) _TMR0_Initialize                                      1     1      0     121
                                              2 COMMON     1     1      0
           _TMR0_SetInterruptHandler
 ---------------------------------------------------------------------------------
 (3) _TMR0_SetInterruptHandler                             2     0      2     121
                                              0 BANK0      2     0      2
 ---------------------------------------------------------------------------------
 (2) _PWM2_Initialize                                      0     0      0       0
 ---------------------------------------------------------------------------------
 (2) _PIN_MANAGER_Initialize                               0     0      0     605
         _IOCAF0_SetInterruptHandler
         _IOCAF1_SetInterruptHandler
         _IOCAF3_SetInterruptHandler
         _IOCAF4_SetInterruptHandler
         _IOCAF5_SetInterruptHandler
 ---------------------------------------------------------------------------------
 (3) _IOCAF5_SetInterruptHandler                           2     0      2     121
                                              0 BANK0      2     0      2
 ---------------------------------------------------------------------------------
 (3) _IOCAF4_SetInterruptHandler                           2     0      2     121
                                              0 BANK0      2     0      2
 ---------------------------------------------------------------------------------
 (3) _IOCAF3_SetInterruptHandler                           2     0      2     121
                                              0 BANK0      2     0      2
 ---------------------------------------------------------------------------------
 (3) _IOCAF1_SetInterruptHandler                           2     0      2     121
                                              0 BANK0      2     0      2
 ---------------------------------------------------------------------------------
 (3) _IOCAF0_SetInterruptHandler                           2     0      2     121
                                              0 BANK0      2     0      2
 ---------------------------------------------------------------------------------
 (2) _OSCILLATOR_Initialize                                0     0      0       0
 ---------------------------------------------------------------------------------
 Estimated maximum stack depth 3
 ---------------------------------------------------------------------------------
 (Depth) Function   	        Calls       Base Space   Used Autos Params    Refs
 ---------------------------------------------------------------------------------
 (4) _INTERRUPT_InterruptManager                           0     0      0     240
                    _PIN_MANAGER_IOC
                           _TMR0_ISR
                           _TMR1_ISR
 ---------------------------------------------------------------------------------
 (5) _TMR1_ISR                                             0     0      0     240
                   Absolute function *
       _TMR1_DefaultInterruptHandler *
                    _TMR1_WriteTimer
 ---------------------------------------------------------------------------------
 (6) _TMR1_WriteTimer                                      2     0      2     240
                                              0 COMMON     2     0      2
 ---------------------------------------------------------------------------------
 (6) _TMR1_DefaultInterruptHandler                         0     0      0       0
 ---------------------------------------------------------------------------------
 (5) _TMR0_ISR                                             0     0      0       0
                   Absolute function *
       _TMR0_DefaultInterruptHandler *
 ---------------------------------------------------------------------------------
 (6) _TMR0_DefaultInterruptHandler                         0     0      0       0
 ---------------------------------------------------------------------------------
 (5) _PIN_MANAGER_IOC                                      0     0      0       0
                         _IOCAF0_ISR
                         _IOCAF1_ISR
                         _IOCAF3_ISR
                         _IOCAF4_ISR
                         _IOCAF5_ISR
 ---------------------------------------------------------------------------------
 (6) _IOCAF5_ISR                                           0     0      0       0
                   Absolute function *
     _IOCAF5_DefaultInterruptHandler *
 ---------------------------------------------------------------------------------
 (7) _IOCAF5_DefaultInterruptHandler                       0     0      0       0
 ---------------------------------------------------------------------------------
 (6) _IOCAF4_ISR                                           0     0      0       0
                   Absolute function *
     _IOCAF4_DefaultInterruptHandler *
 ---------------------------------------------------------------------------------
 (7) _IOCAF4_DefaultInterruptHandler                       0     0      0       0
 ---------------------------------------------------------------------------------
 (6) _IOCAF3_ISR                                           0     0      0       0
                   Absolute function *
     _IOCAF3_DefaultInterruptHandler *
 ---------------------------------------------------------------------------------
 (7) _IOCAF3_DefaultInterruptHandler                       0     0      0       0
 ---------------------------------------------------------------------------------
 (6) _IOCAF1_ISR                                           0     0      0       0
                   Absolute function *
     _IOCAF1_DefaultInterruptHandler *
 ---------------------------------------------------------------------------------
 (7) _IOCAF1_DefaultInterruptHandler                       0     0      0       0
 ---------------------------------------------------------------------------------
 (6) _IOCAF0_ISR                                           0     0      0       0
                   Absolute function *
     _IOCAF0_DefaultInterruptHandler *
 ---------------------------------------------------------------------------------
 (7) _IOCAF0_DefaultInterruptHandler                       0     0      0       0
 ---------------------------------------------------------------------------------
 (6) Absolute function(Fake)                               0     0      0       0
 ---------------------------------------------------------------------------------
 Estimated maximum stack depth 7
 ---------------------------------------------------------------------------------

 Call Graph Graphs:

 _main (ROOT)
   _SYSTEM_Initialize
     _OSCILLATOR_Initialize
     _PIN_MANAGER_Initialize
       _IOCAF0_SetInterruptHandler
       _IOCAF1_SetInterruptHandler
       _IOCAF3_SetInterruptHandler
       _IOCAF4_SetInterruptHandler
       _IOCAF5_SetInterruptHandler
     _PWM2_Initialize
     _TMR0_Initialize
       _TMR0_SetInterruptHandler
     _TMR1_Initialize
       _TMR1_SetInterruptHandler
     _TMR2_Initialize
     _WDT_Initialize

 _INTERRUPT_InterruptManager (ROOT)
   _PIN_MANAGER_IOC
     _IOCAF0_ISR
       Absolute function(Fake) *
       _IOCAF0_DefaultInterruptHandler *
     _IOCAF1_ISR
       Absolute function(Fake) *
       _IOCAF1_DefaultInterruptHandler *
     _IOCAF3_ISR
       Absolute function(Fake) *
       _IOCAF3_DefaultInterruptHandler *
     _IOCAF4_ISR
       Absolute function(Fake) *
       _IOCAF4_DefaultInterruptHandler *
     _IOCAF5_ISR
       Absolute function(Fake) *
       _IOCAF5_DefaultInterruptHandler *
   _TMR0_ISR
     Absolute function(Fake) *
     _TMR0_DefaultInterruptHandler *
   _TMR1_ISR
     Absolute function(Fake) *
     _TMR1_DefaultInterruptHandler *
     _TMR1_WriteTimer *

 Address spaces:
Name               Size   Autos  Total    Cost      Usage
BIGRAM              70      0       0       0        0.0%
NULL                 0      0       0       0        0.0%
CODE                 0      0       0       0        0.0%
BITCOMMON            E      0       0       1        0.0%
BITSFR0              0      0       0       1        0.0%
SFR0                 0      0       0       1        0.0%
COMMON               E      3       C       2       85.7%
BITSFR1              0      0       0       2        0.0%
SFR1                 0      0       0       2        0.0%
BITSFR2              0      0       0       3        0.0%
SFR2                 0      0       0       3        0.0%
STACK                0      0       0       3        0.0%
BITSFR3              0      0       0       4        0.0%
SFR3                 0      0       0       4        0.0%
ABS                  0      0      16       4        0.0%
BITBANK0            50      0       0       5        0.0%
BITSFR4              0      0       0       5        0.0%
SFR4                 0      0       0       5        0.0%
BANK0               50      2       A       6       12.5%
BITSFR5              0      0       0       6        0.0%
SFR5                 0      0       0       6        0.0%
BITBANK1            20      0       0       7        0.0%
BITSFR6              0      0       0       7        0.0%
SFR6                 0      0       0       7        0.0%
BANK1               20      0       0       8        0.0%
BITSFR7              0      0       0       8        0.0%
SFR7                 0      0       0       8        0.0%
BITSFR8              0      0       0       9        0.0%
SFR8                 0      0       0       9        0.0%
DATA                 0      0      16       9        0.0%
BITSFR9              0      0       0      10        0.0%
SFR9                 0      0       0      10        0.0%
BITSFR10             0      0       0      11        0.0%
SFR10                0      0       0      11        0.0%
BITSFR11             0      0       0      12        0.0%
SFR11                0      0       0      12        0.0%
BITSFR12             0      0       0      13        0.0%
SFR12                0      0       0      13        0.0%
BITSFR13             0      0       0      14        0.0%
SFR13                0      0       0      14        0.0%
BITSFR14             0      0       0      15        0.0%
SFR14                0      0       0      15        0.0%
BITSFR15             0      0       0      16        0.0%
SFR15                0      0       0      16        0.0%
BITSFR16             0      0       0      17        0.0%
SFR16                0      0       0      17        0.0%
BITSFR17             0      0       0      18        0.0%
SFR17                0      0       0      18        0.0%
BITSFR18             0      0       0      19        0.0%
SFR18                0      0       0      19        0.0%
BITSFR19             0      0       0      20        0.0%
SFR19                0      0       0      20        0.0%
BITSFR20             0      0       0      21        0.0%
SFR20                0      0       0      21        0.0%
BITSFR21             0      0       0      22        0.0%
SFR21                0      0       0      22        0.0%
BITSFR22             0      0       0      23        0.0%
SFR22                0      0       0      23        0.0%
BITSFR23             0      0       0      24        0.0%
SFR23                0      0       0      24        0.0%
BITSFR24             0      0       0      25        0.0%
SFR24                0      0       0      25        0.0%
BITSFR25             0      0       0      26        0.0%
SFR25                0      0       0      26        0.0%
BITSFR26             0      0       0      27        0.0%
SFR26                0      0       0      27        0.0%
BITSFR27             0      0       0      28        0.0%
SFR27                0      0       0      28        0.0%
BITSFR28             0      0       0      29        0.0%
SFR28                0      0       0      29        0.0%
BITSFR29             0      0       0      30        0.0%
SFR29                0      0       0      30        0.0%
BITSFR30             0      0       0      31        0.0%
SFR30                0      0       0      31        0.0%
BITSFR31             0      0       0      32        0.0%
SFR31                0      0       0      32        0.0%


Microchip Technology PIC Macro Assembler V2.31 build 20201012212115 
Symbol Table                                                                                   Wed Sep 22 23:49:33 2021

                                        l84 01AA                                          l69 0082  
                                        l94 01A4                             _timer0ReloadVal 0078  
                                       l104 019E                                         l200 0178  
                                       l114 0198                                         l124 0192  
                                       l154 00C4                                         l252 018C  
                                       l236 00F0                                         l316 01B4  
                                       l317 01B4                                         l328 0180  
                                       l184 0186                                         l281 01B0  
                                       l284 01B9                                         l278 00DA  
                                       l985 0170                                         l987 0175  
                                       _PR2 001B                             _timer1ReloadVal 0070  
                           _TMR2_Initialize 0170          __end_of_IOCAF5_SetInterruptHandler 0193  
                _IOCAF5_SetInterruptHandler 018D                                        l1001 01AB  
                                      l1003 01AE                                        l1005 01B6  
                                      l1007 0179                                        l1301 0187  
                                      l1311 0041                                        l1303 0036  
                                      l1321 004D                                        l1313 0045  
                                      l1305 0039                                        l1331 0052  
                                      l1323 004E                                        l1315 0049  
                                      l1307 003C                                        l1341 0057  
                                      l1333 0053                                        l1325 004F  
                                      l1317 004B                                        l1309 003E  
                                      l1351 0071                                        l1343 0058  
                                      l1335 0054                                        l1327 0050  
                                      l1319 004C                                        l1353 0079  
                                      l1345 0059                                        l1337 0055  
                                      l1329 0051                                        l1361 00B0  
                                      l1291 019F                                        l1355 0081  
                                      l1347 0061                                        l1339 0056  
                                      l1371 00C1                                        l1363 00B2  
                                      l1293 0199                                        l1349 0069  
                                      l1381 00E8                                        l1373 00DB  
                                      l1365 00B3                                        l1357 00AC  
                                      l1295 0193                                        l1383 00E9  
                                      l1375 00E0                                        l1367 00B7  
                                      l1359 00AE                                        l1289 01A5  
                                      l1297 018D                                        l1377 00E3  
                                      l1369 00B9                                        l1385 00C5  
                                      l1379 00E7                                        l1299 0181  
                                      l1387 01B1                                        _LATA 010C  
                                      _LATC 010E                                        i1l81 016F  
                                      i1l91 0161                                        i1l77 00AB  
                                      i1l87 01C0                                        i1l97 01BF  
                                      _TMR0 0015                                        _TMR2 001A  
                                      _WPUA 020C                                        u1_20 0168  
                                      u1_21 0167                                        u2_20 015A  
                                      u2_21 0159                                        u3_20 014C  
                                      u3_21 014B                                        _main 01B1  
                                      btemp 007E                                        start 0032  
                ??_TMR1_SetInterruptHandler 007B                     __end_of_PWM2_Initialize 0181  
                   __end_of_TMR0_Initialize 00F1              ??_TMR0_DefaultInterruptHandler 0079  
                       __size_of_IOCAF0_ISR 000E                         __size_of_IOCAF1_ISR 000E  
            __size_of_OSCILLATOR_Initialize 0006                         __size_of_IOCAF3_ISR 000E  
                       __size_of_IOCAF4_ISR 000F                         __size_of_IOCAF5_ISR 000F  
             __end_of_OSCILLATOR_Initialize 01B1                                       ?_main 0079  
                                     _T1CON 0018                                       _T2CON 001C  
                                     i1l101 0153                                       i1l111 0145  
                                     i1l121 0136                                       i1l107 01BE  
                                     i1l117 01BD                                       i1l301 0012  
                                     i1l127 01BC                                       i1l303 001E  
                                     i1l304 0030                                       i1l181 0106  
                                     i1l309 0030                                       i1l255 01BB  
                                     i1l168 0117                                       i1l249 0127  
                                     i1l187 01BA                                       i1l931 0154  
                                     i1l925 0162                                       i1l933 015A  
                                     i1l941 0151                                       i1l927 0168  
                                     i1l935 015F                                       i1l929 016D  
                                     i1l937 0146                                       i1l939 014C  
                                     u30_20 00A8                                       u30_21 00A7  
                                     u23_20 013E                                       u31_20 0101  
                                     u23_21 013D                                       u31_21 0100  
                                     u24_20 012F                                       u32_20 0122  
                                     u24_21 012E                                       u32_21 0121  
                                     u25_20 010C                                       u33_20 000A  
                                     u25_21 010B                                       u33_21 0009  
                                     _TMR1H 0017                                       _TMR1L 0016  
                                     u26_20 0088                                       u34_20 000E  
                                     u26_21 0087                                       u34_21 000D  
                                     u27_20 0090                                       u35_20 0016  
                                     u27_21 008F                                       u35_21 0015  
                                     u28_20 0098                                       u36_20 001A  
                                     u28_21 0097                                       u36_21 0019  
                                     u29_20 00A0                                       u37_20 0022  
                                     u29_21 009F                                       u37_21 0021  
                                     u38_20 0027                                       u38_21 0026  
                                     u39_20 002C                                       u39_21 002B  
                                     _TRISA 008C                                       _TRISC 008E  
         __size_of_TMR0_SetInterruptHandler 0006                   ?_TMR0_SetInterruptHandler 0028  
                          __end_of_TMR0_ISR 0128                            __end_of_TMR1_ISR 0107  
                   __end_of_PIN_MANAGER_IOC 00AC                              _WDT_Initialize 01B6  
                   __end_of_TMR1_Initialize 00C5                                       pclath 000A  
                                     status 0003                                       wtemp0 007E  
                           _TMR1_WriteTimer 0107                             __initialization 0033  
                              __end_of_main 01B6                     __end_of_TMR2_Initialize 0179  
               ?_INTERRUPT_InterruptManager 0079                                      ??_main 007C  
                   _IOCAF4_InterruptHandler 0026                      __end_of_WDT_Initialize 01BA  
              ??_IOCAF0_SetInterruptHandler 007B                ??_IOCAF3_SetInterruptHandler 007B  
                                    _APFCON 011D                                      _ANSELA 018C  
                                    _ANSELC 018E                                      _BORCON 0116  
                                    _T1GCON 0019                     TMR1_WriteTimer@timerVal 0079  
                                    i1l1211 010F                                      i1l1213 0111  
                                    i1l1205 0107                                      i1l1231 0083  
                                    i1l1207 010C                                      i1l1215 0113  
                                    i1l1241 0098                                      i1l1233 0088  
                                    i1l1217 0115                                      i1l1209 010D  
                                    i1l1243 009B                                      i1l1235 008B  
                                    i1l1251 00F1                                      i1l1181 0143  
                                    i1l1245 00A0                                      i1l1237 0090  
                                    i1l1261 0119                                      i1l1253 00F3  
                                    i1l1183 0128                                      i1l1247 00A3  
                                    i1l1239 0093                                      i1l1263 011C  
                                    i1l1255 00FA                                      i1l1271 0006  
                                    i1l1177 0137                                      i1l1185 012F  
                                    i1l1249 00A8                                      i1l1265 0122  
                                    i1l1257 0101                                      i1l1281 0022  
                                    i1l1273 000A                                      i1l1179 013E  
                                    i1l1187 0134                                      i1l1259 0118  
                                    i1l1283 0027                                      i1l1275 000E  
                                    i1l1285 002C                                      i1l1277 0016  
                                    i1l1279 001A                                      _OSCCON 0099  
                                    _WDTCON 0097        __end_of_TMR1_DefaultInterruptHandler 01BB  
     __size_of_TMR1_DefaultInterruptHandler 0001                _TMR1_DefaultInterruptHandler 01BA  
                          ?_TMR0_Initialize 0079                            ?_PWM2_Initialize 0079  
       __size_of_IOCAF0_SetInterruptHandler 0006         __size_of_IOCAF3_SetInterruptHandler 0006  
                           ?_WDT_Initialize 0079    TMR0_SetInterruptHandler@InterruptHandler 0028  
  TMR1_SetInterruptHandler@InterruptHandler 0028  IOCAF5_SetInterruptHandler@InterruptHandler 0028  
IOCAF4_SetInterruptHandler@InterruptHandler 0028  IOCAF3_SetInterruptHandler@InterruptHandler 0028  
IOCAF1_SetInterruptHandler@InterruptHandler 0028  IOCAF0_SetInterruptHandler@InterruptHandler 0028  
                          ?_PIN_MANAGER_IOC 0079                     __end_of_TMR1_WriteTimer 0118  
                              ??_IOCAF0_ISR 0079                                ??_IOCAF1_ISR 0079  
                              ??_IOCAF3_ISR 0079                                ??_IOCAF4_ISR 0079  
                              ??_IOCAF5_ISR 0079                            ?_TMR1_Initialize 0079  
                         _SYSTEM_Initialize 00C5                     __end_of__initialization 0033  
    __end_of_IOCAF1_DefaultInterruptHandler 01C0     __size_of_IOCAF1_DefaultInterruptHandler 0001  
            _IOCAF1_DefaultInterruptHandler 01BF                          ?_SYSTEM_Initialize 0079  
                            __pcstackCOMMON 0079                         ??_SYSTEM_Initialize 007C  
                                 ?_TMR0_ISR 0079                                   ?_TMR1_ISR 0079  
             ?_TMR1_DefaultInterruptHandler 0079      __end_of_IOCAF4_DefaultInterruptHandler 01BE  
   __size_of_IOCAF4_DefaultInterruptHandler 0001              _IOCAF4_DefaultInterruptHandler 01BD  
                          ?_TMR2_Initialize 0079                          __end_of_IOCAF0_ISR 0170  
                        __end_of_IOCAF1_ISR 0162                          __end_of_IOCAF3_ISR 0154  
                        __end_of_IOCAF4_ISR 0146                          __end_of_IOCAF5_ISR 0137  
                            _OPTION_REGbits 0095                 ?_IOCAF5_SetInterruptHandler 0028  
                 __end_of_SYSTEM_Initialize 00DB                                  __pnvCOMMON 0070  
          ??_IOCAF5_DefaultInterruptHandler 0079             ?_IOCAF5_DefaultInterruptHandler 0079  
                   _IOCAF5_InterruptHandler 0024                                  __pmaintext 01B1  
          __end_of_TMR0_SetInterruptHandler 018D                                  ??_TMR0_ISR 0079  
                                ??_TMR1_ISR 007B                                  __pintentry 0004  
        __end_of_IOCAF0_SetInterruptHandler 01AB                  _IOCAF0_SetInterruptHandler 01A5  
        __end_of_IOCAF3_SetInterruptHandler 019F                  _IOCAF3_SetInterruptHandler 0199  
                                   _PWM2DCH 0615                                     _PWM2DCL 0614  
                                   _PWM2CON 0616                            ?_TMR1_WriteTimer 0079  
                                   __ptext1 00C5                                     __ptext2 01B6  
                                   __ptext3 0170                                     __ptext4 00AC  
                                   __ptext5 0181                                     __ptext6 00DB  
                                   __ptext7 0187                                     __ptext8 0179  
                                   __ptext9 0036              ??_TMR1_DefaultInterruptHandler 0079  
                                 _T1CONbits 0018                       _OSCILLATOR_Initialize 01AB  
                                 _T2CONbits 001C           __size_of_TMR1_SetInterruptHandler 0006  
                  ??_PIN_MANAGER_Initialize 007B                   ?_TMR1_SetInterruptHandler 0028  
                                 _IOCAFbits 0393                                   _IOCANbits 0392  
                                 _IOCAPbits 0391                  __size_of_SYSTEM_Initialize 0016  
                      end_of_initialization 0033                            ??_WDT_Initialize 007B  
                  _TMR0_SetInterruptHandler 0187                     _IOCAF0_InterruptHandler 0076  
              ??_IOCAF1_SetInterruptHandler 007B                ??_IOCAF4_SetInterruptHandler 007B  
       __size_of_IOCAF1_SetInterruptHandler 0006                           __size_of_TMR0_ISR 0010  
                         __size_of_TMR1_ISR 0016         __size_of_IOCAF4_SetInterruptHandler 0006  
                    ?_OSCILLATOR_Initialize 0079                         start_initialization 0033  
                  __size_of_PWM2_Initialize 0008                    __size_of_TMR0_Initialize 0016  
           __size_of_PIN_MANAGER_Initialize 004D                    __size_of_PIN_MANAGER_IOC 0029  
                  __size_of_TMR1_Initialize 0019            ??_IOCAF0_DefaultInterruptHandler 0079  
           ?_IOCAF0_DefaultInterruptHandler 0079      __end_of_IOCAF5_DefaultInterruptHandler 01BD  
   __size_of_IOCAF5_DefaultInterruptHandler 0001              _IOCAF5_DefaultInterruptHandler 01BC  
                                 ___latbits 0000                 ?_IOCAF0_SetInterruptHandler 0028  
                             __pcstackBANK0 0028                 ?_IOCAF3_SetInterruptHandler 0028  
                  __size_of_TMR2_Initialize 0009            ??_IOCAF3_DefaultInterruptHandler 0079  
           ?_IOCAF3_DefaultInterruptHandler 0079                       _TMR0_InterruptHandler 0020  
                                 __pnvBANK0 0020                     _IOCAF1_InterruptHandler 0074  
                    _PIN_MANAGER_Initialize 0036            __end_of_TMR1_SetInterruptHandler 0187  
              ??_INTERRUPT_InterruptManager 007B          __end_of_IOCAF1_SetInterruptHandler 01A5  
                _IOCAF1_SetInterruptHandler 019F          __end_of_IOCAF4_SetInterruptHandler 0199  
                _IOCAF4_SetInterruptHandler 0193                           ??_TMR0_Initialize 007B  
                         ??_PWM2_Initialize 007B                                    _PIE1bits 0091  
                  __size_of_TMR1_WriteTimer 0011         __size_of_INTERRUPT_InterruptManager 002E  
                ??_TMR0_SetInterruptHandler 007B                                    _PIR1bits 0011  
                                  _TMR0_ISR 0118                                    _TMR1_ISR 00F1  
                         ??_PIN_MANAGER_IOC 0079                           ??_TMR1_Initialize 007B  
                         ??_TMR2_Initialize 007B                     ??_OSCILLATOR_Initialize 007B  
                  _TMR1_SetInterruptHandler 0181                       _TMR1_InterruptHandler 0022  
                                  __ptext10 018D                                    __ptext11 0193  
                                  __ptext20 0118                                    __ptext12 0199  
                                  __ptext21 01BB                                    __ptext13 019F  
                                _T1GCONbits 0019                                    __ptext30 01BF  
                                  __ptext22 0083                                    __ptext14 01A5  
                                  __ptext31 0162                                    __ptext23 0128  
                                  __ptext15 01AB                                    __ptext32 01C0  
                                  __ptext24 01BC                                    __ptext25 0137  
                                  __ptext17 00F1                                    __ptext26 01BD  
                                  __ptext18 0107                                    __ptext27 0146  
                                  __ptext19 01BA                                    __ptext28 01BE  
                                  __ptext29 0154                ??_IOCAF5_SetInterruptHandler 007B  
                                _IOCAF0_ISR 0162                                  _IOCAF1_ISR 0154  
                                _IOCAF3_ISR 0146                                  _IOCAF4_ISR 0137  
                                _IOCAF5_ISR 0128                               __size_of_main 0005  
      __end_of_TMR0_DefaultInterruptHandler 01BC       __size_of_TMR0_DefaultInterruptHandler 0001  
              _TMR0_DefaultInterruptHandler 01BB                                    int$flags 007E  
        __end_of_INTERRUPT_InterruptManager 0032                  _INTERRUPT_InterruptManager 0004  
                         ??_TMR1_WriteTimer 007B         __size_of_IOCAF5_SetInterruptHandler 0006  
                                _INTCONbits 000B                     __size_of_WDT_Initialize 0004  
                                  intlevel1 0000      __end_of_IOCAF0_DefaultInterruptHandler 01C1  
   __size_of_IOCAF0_DefaultInterruptHandler 0001              _IOCAF0_DefaultInterruptHandler 01C0  
                   ?_PIN_MANAGER_Initialize 0079               ?_TMR0_DefaultInterruptHandler 0079  
    __end_of_IOCAF3_DefaultInterruptHandler 01BF     __size_of_IOCAF3_DefaultInterruptHandler 0001  
            _IOCAF3_DefaultInterruptHandler 01BE                                  _OPTION_REG 0095  
          ??_IOCAF1_DefaultInterruptHandler 0079             ?_IOCAF1_DefaultInterruptHandler 0079  
                           _TMR0_Initialize 00DB                             _PWM2_Initialize 0179  
               ?_IOCAF1_SetInterruptHandler 0028                 ?_IOCAF4_SetInterruptHandler 0028  
                               ?_IOCAF0_ISR 0079                                 ?_IOCAF1_ISR 0079  
                               ?_IOCAF3_ISR 0079                                 ?_IOCAF4_ISR 0079  
                               ?_IOCAF5_ISR 0079              __end_of_PIN_MANAGER_Initialize 0083  
          ??_IOCAF4_DefaultInterruptHandler 0079             ?_IOCAF4_DefaultInterruptHandler 0079  
                           _PIN_MANAGER_IOC 0083                     _IOCAF3_InterruptHandler 0072  
                           _TMR1_Initialize 00AC  
